
BootLoader.elf:     file format elf32-littlearm

Sections:
Idx Name          Size      VMA       LMA       File off  Algn
  0 .isr_vector   00000194  08000000  08000000  00001000  2**0
                  CONTENTS, ALLOC, LOAD, READONLY, DATA
  1 .text         00001e00  08000198  08000198  00001198  2**3
                  CONTENTS, ALLOC, LOAD, READONLY, CODE
  2 .rodata       00000000  08001f98  08001f98  00003028  2**0
                  CONTENTS, ALLOC, LOAD, DATA
  3 .ARM.extab    00000000  08001f98  08001f98  00003028  2**0
                  CONTENTS, READONLY
  4 .ARM          00000000  08001f98  08001f98  00003028  2**0
                  CONTENTS, READONLY
  5 .preinit_array 00000000  08001f98  08001f98  00003028  2**0
                  CONTENTS, ALLOC, LOAD, DATA
  6 .init_array   00000004  08001f98  08001f98  00002f98  2**2
                  CONTENTS, ALLOC, LOAD, READONLY, DATA
  7 .fini_array   00000004  08001f9c  08001f9c  00002f9c  2**2
                  CONTENTS, ALLOC, LOAD, READONLY, DATA
  8 .data         00000028  20000000  08001fa0  00003000  2**2
                  CONTENTS, ALLOC, LOAD, DATA
  9 .bss          00000108  20000028  08001fc8  00003028  2**2
                  ALLOC
 10 ._user_heap_stack 00000600  20000130  08001fc8  00003130  2**0
                  ALLOC
 11 .ARM.attributes 00000030  00000000  00000000  00003028  2**0
                  CONTENTS, READONLY
 12 .debug_info   000025e2  00000000  00000000  00003058  2**0
                  CONTENTS, READONLY, DEBUGGING, OCTETS
 13 .debug_abbrev 00000c8f  00000000  00000000  0000563a  2**0
                  CONTENTS, READONLY, DEBUGGING, OCTETS
 14 .debug_aranges 000003e8  00000000  00000000  000062d0  2**3
                  CONTENTS, READONLY, DEBUGGING, OCTETS
 15 .debug_rnglists 000002c1  00000000  00000000  000066b8  2**0
                  CONTENTS, READONLY, DEBUGGING, OCTETS
 16 .debug_macro  000026a1  00000000  00000000  00006979  2**0
                  CONTENTS, READONLY, DEBUGGING, OCTETS
 17 .debug_line   00003350  00000000  00000000  0000901a  2**0
                  CONTENTS, READONLY, DEBUGGING, OCTETS
 18 .debug_str    0000b62e  00000000  00000000  0000c36a  2**0
                  CONTENTS, READONLY, DEBUGGING, OCTETS
 19 .comment      00000043  00000000  00000000  00017998  2**0
                  CONTENTS, READONLY
 20 .debug_frame  00000e54  00000000  00000000  000179dc  2**2
                  CONTENTS, READONLY, DEBUGGING, OCTETS
 21 .debug_line_str 0000005b  00000000  00000000  00018830  2**0
                  CONTENTS, READONLY, DEBUGGING, OCTETS

Disassembly of section .text:

08000198 <__do_global_dtors_aux>:
 8000198:	b510      	push	{r4, lr}
 800019a:	4c05      	ldr	r4, [pc, #20]	@ (80001b0 <__do_global_dtors_aux+0x18>)
 800019c:	7823      	ldrb	r3, [r4, #0]
 800019e:	b933      	cbnz	r3, 80001ae <__do_global_dtors_aux+0x16>
 80001a0:	4b04      	ldr	r3, [pc, #16]	@ (80001b4 <__do_global_dtors_aux+0x1c>)
 80001a2:	b113      	cbz	r3, 80001aa <__do_global_dtors_aux+0x12>
 80001a4:	4804      	ldr	r0, [pc, #16]	@ (80001b8 <__do_global_dtors_aux+0x20>)
 80001a6:	f3af 8000 	nop.w
 80001aa:	2301      	movs	r3, #1
 80001ac:	7023      	strb	r3, [r4, #0]
 80001ae:	bd10      	pop	{r4, pc}
 80001b0:	20000028 	.word	0x20000028
 80001b4:	00000000 	.word	0x00000000
 80001b8:	08001f80 	.word	0x08001f80

080001bc <frame_dummy>:
 80001bc:	b508      	push	{r3, lr}
 80001be:	4b03      	ldr	r3, [pc, #12]	@ (80001cc <frame_dummy+0x10>)
 80001c0:	b11b      	cbz	r3, 80001ca <frame_dummy+0xe>
 80001c2:	4903      	ldr	r1, [pc, #12]	@ (80001d0 <frame_dummy+0x14>)
 80001c4:	4803      	ldr	r0, [pc, #12]	@ (80001d4 <frame_dummy+0x18>)
 80001c6:	f3af 8000 	nop.w
 80001ca:	bd08      	pop	{r3, pc}
 80001cc:	00000000 	.word	0x00000000
 80001d0:	2000002c 	.word	0x2000002c
 80001d4:	08001f80 	.word	0x08001f80

080001d8 <__aeabi_drsub>:
 80001d8:	f081 4100 	eor.w	r1, r1, #2147483648	@ 0x80000000
 80001dc:	e002      	b.n	80001e4 <__adddf3>
 80001de:	bf00      	nop

080001e0 <__aeabi_dsub>:
 80001e0:	f083 4300 	eor.w	r3, r3, #2147483648	@ 0x80000000

080001e4 <__adddf3>:
 80001e4:	b530      	push	{r4, r5, lr}
 80001e6:	ea4f 0441 	mov.w	r4, r1, lsl #1
 80001ea:	ea4f 0543 	mov.w	r5, r3, lsl #1
 80001ee:	ea94 0f05 	teq	r4, r5
 80001f2:	bf08      	it	eq
 80001f4:	ea90 0f02 	teqeq	r0, r2
 80001f8:	bf1f      	itttt	ne
 80001fa:	ea54 0c00 	orrsne.w	ip, r4, r0
 80001fe:	ea55 0c02 	orrsne.w	ip, r5, r2
 8000202:	ea7f 5c64 	mvnsne.w	ip, r4, asr #21
 8000206:	ea7f 5c65 	mvnsne.w	ip, r5, asr #21
 800020a:	f000 80e2 	beq.w	80003d2 <__adddf3+0x1ee>
 800020e:	ea4f 5454 	mov.w	r4, r4, lsr #21
 8000212:	ebd4 5555 	rsbs	r5, r4, r5, lsr #21
 8000216:	bfb8      	it	lt
 8000218:	426d      	neglt	r5, r5
 800021a:	dd0c      	ble.n	8000236 <__adddf3+0x52>
 800021c:	442c      	add	r4, r5
 800021e:	ea80 0202 	eor.w	r2, r0, r2
 8000222:	ea81 0303 	eor.w	r3, r1, r3
 8000226:	ea82 0000 	eor.w	r0, r2, r0
 800022a:	ea83 0101 	eor.w	r1, r3, r1
 800022e:	ea80 0202 	eor.w	r2, r0, r2
 8000232:	ea81 0303 	eor.w	r3, r1, r3
 8000236:	2d36      	cmp	r5, #54	@ 0x36
 8000238:	bf88      	it	hi
 800023a:	bd30      	pophi	{r4, r5, pc}
 800023c:	f011 4f00 	tst.w	r1, #2147483648	@ 0x80000000
 8000240:	ea4f 3101 	mov.w	r1, r1, lsl #12
 8000244:	f44f 1c80 	mov.w	ip, #1048576	@ 0x100000
 8000248:	ea4c 3111 	orr.w	r1, ip, r1, lsr #12
 800024c:	d002      	beq.n	8000254 <__adddf3+0x70>
 800024e:	4240      	negs	r0, r0
 8000250:	eb61 0141 	sbc.w	r1, r1, r1, lsl #1
 8000254:	f013 4f00 	tst.w	r3, #2147483648	@ 0x80000000
 8000258:	ea4f 3303 	mov.w	r3, r3, lsl #12
 800025c:	ea4c 3313 	orr.w	r3, ip, r3, lsr #12
 8000260:	d002      	beq.n	8000268 <__adddf3+0x84>
 8000262:	4252      	negs	r2, r2
 8000264:	eb63 0343 	sbc.w	r3, r3, r3, lsl #1
 8000268:	ea94 0f05 	teq	r4, r5
 800026c:	f000 80a7 	beq.w	80003be <__adddf3+0x1da>
 8000270:	f1a4 0401 	sub.w	r4, r4, #1
 8000274:	f1d5 0e20 	rsbs	lr, r5, #32
 8000278:	db0d      	blt.n	8000296 <__adddf3+0xb2>
 800027a:	fa02 fc0e 	lsl.w	ip, r2, lr
 800027e:	fa22 f205 	lsr.w	r2, r2, r5
 8000282:	1880      	adds	r0, r0, r2
 8000284:	f141 0100 	adc.w	r1, r1, #0
 8000288:	fa03 f20e 	lsl.w	r2, r3, lr
 800028c:	1880      	adds	r0, r0, r2
 800028e:	fa43 f305 	asr.w	r3, r3, r5
 8000292:	4159      	adcs	r1, r3
 8000294:	e00e      	b.n	80002b4 <__adddf3+0xd0>
 8000296:	f1a5 0520 	sub.w	r5, r5, #32
 800029a:	f10e 0e20 	add.w	lr, lr, #32
 800029e:	2a01      	cmp	r2, #1
 80002a0:	fa03 fc0e 	lsl.w	ip, r3, lr
 80002a4:	bf28      	it	cs
 80002a6:	f04c 0c02 	orrcs.w	ip, ip, #2
 80002aa:	fa43 f305 	asr.w	r3, r3, r5
 80002ae:	18c0      	adds	r0, r0, r3
 80002b0:	eb51 71e3 	adcs.w	r1, r1, r3, asr #31
 80002b4:	f001 4500 	and.w	r5, r1, #2147483648	@ 0x80000000
 80002b8:	d507      	bpl.n	80002ca <__adddf3+0xe6>
 80002ba:	f04f 0e00 	mov.w	lr, #0
 80002be:	f1dc 0c00 	rsbs	ip, ip, #0
 80002c2:	eb7e 0000 	sbcs.w	r0, lr, r0
 80002c6:	eb6e 0101 	sbc.w	r1, lr, r1
 80002ca:	f5b1 1f80 	cmp.w	r1, #1048576	@ 0x100000
 80002ce:	d31b      	bcc.n	8000308 <__adddf3+0x124>
 80002d0:	f5b1 1f00 	cmp.w	r1, #2097152	@ 0x200000
 80002d4:	d30c      	bcc.n	80002f0 <__adddf3+0x10c>
 80002d6:	0849      	lsrs	r1, r1, #1
 80002d8:	ea5f 0030 	movs.w	r0, r0, rrx
 80002dc:	ea4f 0c3c 	mov.w	ip, ip, rrx
 80002e0:	f104 0401 	add.w	r4, r4, #1
 80002e4:	ea4f 5244 	mov.w	r2, r4, lsl #21
 80002e8:	f512 0f80 	cmn.w	r2, #4194304	@ 0x400000
 80002ec:	f080 809a 	bcs.w	8000424 <__adddf3+0x240>
 80002f0:	f1bc 4f00 	cmp.w	ip, #2147483648	@ 0x80000000
 80002f4:	bf08      	it	eq
 80002f6:	ea5f 0c50 	movseq.w	ip, r0, lsr #1
 80002fa:	f150 0000 	adcs.w	r0, r0, #0
 80002fe:	eb41 5104 	adc.w	r1, r1, r4, lsl #20
 8000302:	ea41 0105 	orr.w	r1, r1, r5
 8000306:	bd30      	pop	{r4, r5, pc}
 8000308:	ea5f 0c4c 	movs.w	ip, ip, lsl #1
 800030c:	4140      	adcs	r0, r0
 800030e:	eb41 0101 	adc.w	r1, r1, r1
 8000312:	3c01      	subs	r4, #1
 8000314:	bf28      	it	cs
 8000316:	f5b1 1f80 	cmpcs.w	r1, #1048576	@ 0x100000
 800031a:	d2e9      	bcs.n	80002f0 <__adddf3+0x10c>
 800031c:	f091 0f00 	teq	r1, #0
 8000320:	bf04      	itt	eq
 8000322:	4601      	moveq	r1, r0
 8000324:	2000      	moveq	r0, #0
 8000326:	fab1 f381 	clz	r3, r1
 800032a:	bf08      	it	eq
 800032c:	3320      	addeq	r3, #32
 800032e:	f1a3 030b 	sub.w	r3, r3, #11
 8000332:	f1b3 0220 	subs.w	r2, r3, #32
 8000336:	da0c      	bge.n	8000352 <__adddf3+0x16e>
 8000338:	320c      	adds	r2, #12
 800033a:	dd08      	ble.n	800034e <__adddf3+0x16a>
 800033c:	f102 0c14 	add.w	ip, r2, #20
 8000340:	f1c2 020c 	rsb	r2, r2, #12
 8000344:	fa01 f00c 	lsl.w	r0, r1, ip
 8000348:	fa21 f102 	lsr.w	r1, r1, r2
 800034c:	e00c      	b.n	8000368 <__adddf3+0x184>
 800034e:	f102 0214 	add.w	r2, r2, #20
 8000352:	bfd8      	it	le
 8000354:	f1c2 0c20 	rsble	ip, r2, #32
 8000358:	fa01 f102 	lsl.w	r1, r1, r2
 800035c:	fa20 fc0c 	lsr.w	ip, r0, ip
 8000360:	bfdc      	itt	le
 8000362:	ea41 010c 	orrle.w	r1, r1, ip
 8000366:	4090      	lslle	r0, r2
 8000368:	1ae4      	subs	r4, r4, r3
 800036a:	bfa2      	ittt	ge
 800036c:	eb01 5104 	addge.w	r1, r1, r4, lsl #20
 8000370:	4329      	orrge	r1, r5
 8000372:	bd30      	popge	{r4, r5, pc}
 8000374:	ea6f 0404 	mvn.w	r4, r4
 8000378:	3c1f      	subs	r4, #31
 800037a:	da1c      	bge.n	80003b6 <__adddf3+0x1d2>
 800037c:	340c      	adds	r4, #12
 800037e:	dc0e      	bgt.n	800039e <__adddf3+0x1ba>
 8000380:	f104 0414 	add.w	r4, r4, #20
 8000384:	f1c4 0220 	rsb	r2, r4, #32
 8000388:	fa20 f004 	lsr.w	r0, r0, r4
 800038c:	fa01 f302 	lsl.w	r3, r1, r2
 8000390:	ea40 0003 	orr.w	r0, r0, r3
 8000394:	fa21 f304 	lsr.w	r3, r1, r4
 8000398:	ea45 0103 	orr.w	r1, r5, r3
 800039c:	bd30      	pop	{r4, r5, pc}
 800039e:	f1c4 040c 	rsb	r4, r4, #12
 80003a2:	f1c4 0220 	rsb	r2, r4, #32
 80003a6:	fa20 f002 	lsr.w	r0, r0, r2
 80003aa:	fa01 f304 	lsl.w	r3, r1, r4
 80003ae:	ea40 0003 	orr.w	r0, r0, r3
 80003b2:	4629      	mov	r1, r5
 80003b4:	bd30      	pop	{r4, r5, pc}
 80003b6:	fa21 f004 	lsr.w	r0, r1, r4
 80003ba:	4629      	mov	r1, r5
 80003bc:	bd30      	pop	{r4, r5, pc}
 80003be:	f094 0f00 	teq	r4, #0
 80003c2:	f483 1380 	eor.w	r3, r3, #1048576	@ 0x100000
 80003c6:	bf06      	itte	eq
 80003c8:	f481 1180 	eoreq.w	r1, r1, #1048576	@ 0x100000
 80003cc:	3401      	addeq	r4, #1
 80003ce:	3d01      	subne	r5, #1
 80003d0:	e74e      	b.n	8000270 <__adddf3+0x8c>
 80003d2:	ea7f 5c64 	mvns.w	ip, r4, asr #21
 80003d6:	bf18      	it	ne
 80003d8:	ea7f 5c65 	mvnsne.w	ip, r5, asr #21
 80003dc:	d029      	beq.n	8000432 <__adddf3+0x24e>
 80003de:	ea94 0f05 	teq	r4, r5
 80003e2:	bf08      	it	eq
 80003e4:	ea90 0f02 	teqeq	r0, r2
 80003e8:	d005      	beq.n	80003f6 <__adddf3+0x212>
 80003ea:	ea54 0c00 	orrs.w	ip, r4, r0
 80003ee:	bf04      	itt	eq
 80003f0:	4619      	moveq	r1, r3
 80003f2:	4610      	moveq	r0, r2
 80003f4:	bd30      	pop	{r4, r5, pc}
 80003f6:	ea91 0f03 	teq	r1, r3
 80003fa:	bf1e      	ittt	ne
 80003fc:	2100      	movne	r1, #0
 80003fe:	2000      	movne	r0, #0
 8000400:	bd30      	popne	{r4, r5, pc}
 8000402:	ea5f 5c54 	movs.w	ip, r4, lsr #21
 8000406:	d105      	bne.n	8000414 <__adddf3+0x230>
 8000408:	0040      	lsls	r0, r0, #1
 800040a:	4149      	adcs	r1, r1
 800040c:	bf28      	it	cs
 800040e:	f041 4100 	orrcs.w	r1, r1, #2147483648	@ 0x80000000
 8000412:	bd30      	pop	{r4, r5, pc}
 8000414:	f514 0480 	adds.w	r4, r4, #4194304	@ 0x400000
 8000418:	bf3c      	itt	cc
 800041a:	f501 1180 	addcc.w	r1, r1, #1048576	@ 0x100000
 800041e:	bd30      	popcc	{r4, r5, pc}
 8000420:	f001 4500 	and.w	r5, r1, #2147483648	@ 0x80000000
 8000424:	f045 41fe 	orr.w	r1, r5, #2130706432	@ 0x7f000000
 8000428:	f441 0170 	orr.w	r1, r1, #15728640	@ 0xf00000
 800042c:	f04f 0000 	mov.w	r0, #0
 8000430:	bd30      	pop	{r4, r5, pc}
 8000432:	ea7f 5c64 	mvns.w	ip, r4, asr #21
 8000436:	bf1a      	itte	ne
 8000438:	4619      	movne	r1, r3
 800043a:	4610      	movne	r0, r2
 800043c:	ea7f 5c65 	mvnseq.w	ip, r5, asr #21
 8000440:	bf1c      	itt	ne
 8000442:	460b      	movne	r3, r1
 8000444:	4602      	movne	r2, r0
 8000446:	ea50 3401 	orrs.w	r4, r0, r1, lsl #12
 800044a:	bf06      	itte	eq
 800044c:	ea52 3503 	orrseq.w	r5, r2, r3, lsl #12
 8000450:	ea91 0f03 	teqeq	r1, r3
 8000454:	f441 2100 	orrne.w	r1, r1, #524288	@ 0x80000
 8000458:	bd30      	pop	{r4, r5, pc}
 800045a:	bf00      	nop

0800045c <__aeabi_ui2d>:
 800045c:	f090 0f00 	teq	r0, #0
 8000460:	bf04      	itt	eq
 8000462:	2100      	moveq	r1, #0
 8000464:	4770      	bxeq	lr
 8000466:	b530      	push	{r4, r5, lr}
 8000468:	f44f 6480 	mov.w	r4, #1024	@ 0x400
 800046c:	f104 0432 	add.w	r4, r4, #50	@ 0x32
 8000470:	f04f 0500 	mov.w	r5, #0
 8000474:	f04f 0100 	mov.w	r1, #0
 8000478:	e750      	b.n	800031c <__adddf3+0x138>
 800047a:	bf00      	nop

0800047c <__aeabi_i2d>:
 800047c:	f090 0f00 	teq	r0, #0
 8000480:	bf04      	itt	eq
 8000482:	2100      	moveq	r1, #0
 8000484:	4770      	bxeq	lr
 8000486:	b530      	push	{r4, r5, lr}
 8000488:	f44f 6480 	mov.w	r4, #1024	@ 0x400
 800048c:	f104 0432 	add.w	r4, r4, #50	@ 0x32
 8000490:	f010 4500 	ands.w	r5, r0, #2147483648	@ 0x80000000
 8000494:	bf48      	it	mi
 8000496:	4240      	negmi	r0, r0
 8000498:	f04f 0100 	mov.w	r1, #0
 800049c:	e73e      	b.n	800031c <__adddf3+0x138>
 800049e:	bf00      	nop

080004a0 <__aeabi_f2d>:
 80004a0:	0042      	lsls	r2, r0, #1
 80004a2:	ea4f 01e2 	mov.w	r1, r2, asr #3
 80004a6:	ea4f 0131 	mov.w	r1, r1, rrx
 80004aa:	ea4f 7002 	mov.w	r0, r2, lsl #28
 80004ae:	bf1f      	itttt	ne
 80004b0:	f012 437f 	andsne.w	r3, r2, #4278190080	@ 0xff000000
 80004b4:	f093 4f7f 	teqne	r3, #4278190080	@ 0xff000000
 80004b8:	f081 5160 	eorne.w	r1, r1, #939524096	@ 0x38000000
 80004bc:	4770      	bxne	lr
 80004be:	f032 427f 	bics.w	r2, r2, #4278190080	@ 0xff000000
 80004c2:	bf08      	it	eq
 80004c4:	4770      	bxeq	lr
 80004c6:	f093 4f7f 	teq	r3, #4278190080	@ 0xff000000
 80004ca:	bf04      	itt	eq
 80004cc:	f441 2100 	orreq.w	r1, r1, #524288	@ 0x80000
 80004d0:	4770      	bxeq	lr
 80004d2:	b530      	push	{r4, r5, lr}
 80004d4:	f44f 7460 	mov.w	r4, #896	@ 0x380
 80004d8:	f001 4500 	and.w	r5, r1, #2147483648	@ 0x80000000
 80004dc:	f021 4100 	bic.w	r1, r1, #2147483648	@ 0x80000000
 80004e0:	e71c      	b.n	800031c <__adddf3+0x138>
 80004e2:	bf00      	nop

080004e4 <__aeabi_ul2d>:
 80004e4:	ea50 0201 	orrs.w	r2, r0, r1
 80004e8:	bf08      	it	eq
 80004ea:	4770      	bxeq	lr
 80004ec:	b530      	push	{r4, r5, lr}
 80004ee:	f04f 0500 	mov.w	r5, #0
 80004f2:	e00a      	b.n	800050a <__aeabi_l2d+0x16>

080004f4 <__aeabi_l2d>:
 80004f4:	ea50 0201 	orrs.w	r2, r0, r1
 80004f8:	bf08      	it	eq
 80004fa:	4770      	bxeq	lr
 80004fc:	b530      	push	{r4, r5, lr}
 80004fe:	f011 4500 	ands.w	r5, r1, #2147483648	@ 0x80000000
 8000502:	d502      	bpl.n	800050a <__aeabi_l2d+0x16>
 8000504:	4240      	negs	r0, r0
 8000506:	eb61 0141 	sbc.w	r1, r1, r1, lsl #1
 800050a:	f44f 6480 	mov.w	r4, #1024	@ 0x400
 800050e:	f104 0432 	add.w	r4, r4, #50	@ 0x32
 8000512:	ea5f 5c91 	movs.w	ip, r1, lsr #22
 8000516:	f43f aed8 	beq.w	80002ca <__adddf3+0xe6>
 800051a:	f04f 0203 	mov.w	r2, #3
 800051e:	ea5f 0cdc 	movs.w	ip, ip, lsr #3
 8000522:	bf18      	it	ne
 8000524:	3203      	addne	r2, #3
 8000526:	ea5f 0cdc 	movs.w	ip, ip, lsr #3
 800052a:	bf18      	it	ne
 800052c:	3203      	addne	r2, #3
 800052e:	eb02 02dc 	add.w	r2, r2, ip, lsr #3
 8000532:	f1c2 0320 	rsb	r3, r2, #32
 8000536:	fa00 fc03 	lsl.w	ip, r0, r3
 800053a:	fa20 f002 	lsr.w	r0, r0, r2
 800053e:	fa01 fe03 	lsl.w	lr, r1, r3
 8000542:	ea40 000e 	orr.w	r0, r0, lr
 8000546:	fa21 f102 	lsr.w	r1, r1, r2
 800054a:	4414      	add	r4, r2
 800054c:	e6bd      	b.n	80002ca <__adddf3+0xe6>
 800054e:	bf00      	nop

08000550 <__aeabi_dmul>:
 8000550:	b570      	push	{r4, r5, r6, lr}
 8000552:	f04f 0cff 	mov.w	ip, #255	@ 0xff
 8000556:	f44c 6ce0 	orr.w	ip, ip, #1792	@ 0x700
 800055a:	ea1c 5411 	ands.w	r4, ip, r1, lsr #20
 800055e:	bf1d      	ittte	ne
 8000560:	ea1c 5513 	andsne.w	r5, ip, r3, lsr #20
 8000564:	ea94 0f0c 	teqne	r4, ip
 8000568:	ea95 0f0c 	teqne	r5, ip
 800056c:	f000 f8de 	bleq	800072c <__aeabi_dmul+0x1dc>
 8000570:	442c      	add	r4, r5
 8000572:	ea81 0603 	eor.w	r6, r1, r3
 8000576:	ea21 514c 	bic.w	r1, r1, ip, lsl #21
 800057a:	ea23 534c 	bic.w	r3, r3, ip, lsl #21
 800057e:	ea50 3501 	orrs.w	r5, r0, r1, lsl #12
 8000582:	bf18      	it	ne
 8000584:	ea52 3503 	orrsne.w	r5, r2, r3, lsl #12
 8000588:	f441 1180 	orr.w	r1, r1, #1048576	@ 0x100000
 800058c:	f443 1380 	orr.w	r3, r3, #1048576	@ 0x100000
 8000590:	d038      	beq.n	8000604 <__aeabi_dmul+0xb4>
 8000592:	fba0 ce02 	umull	ip, lr, r0, r2
 8000596:	f04f 0500 	mov.w	r5, #0
 800059a:	fbe1 e502 	umlal	lr, r5, r1, r2
 800059e:	f006 4200 	and.w	r2, r6, #2147483648	@ 0x80000000
 80005a2:	fbe0 e503 	umlal	lr, r5, r0, r3
 80005a6:	f04f 0600 	mov.w	r6, #0
 80005aa:	fbe1 5603 	umlal	r5, r6, r1, r3
 80005ae:	f09c 0f00 	teq	ip, #0
 80005b2:	bf18      	it	ne
 80005b4:	f04e 0e01 	orrne.w	lr, lr, #1
 80005b8:	f1a4 04ff 	sub.w	r4, r4, #255	@ 0xff
 80005bc:	f5b6 7f00 	cmp.w	r6, #512	@ 0x200
 80005c0:	f564 7440 	sbc.w	r4, r4, #768	@ 0x300
 80005c4:	d204      	bcs.n	80005d0 <__aeabi_dmul+0x80>
 80005c6:	ea5f 0e4e 	movs.w	lr, lr, lsl #1
 80005ca:	416d      	adcs	r5, r5
 80005cc:	eb46 0606 	adc.w	r6, r6, r6
 80005d0:	ea42 21c6 	orr.w	r1, r2, r6, lsl #11
 80005d4:	ea41 5155 	orr.w	r1, r1, r5, lsr #21
 80005d8:	ea4f 20c5 	mov.w	r0, r5, lsl #11
 80005dc:	ea40 505e 	orr.w	r0, r0, lr, lsr #21
 80005e0:	ea4f 2ece 	mov.w	lr, lr, lsl #11
 80005e4:	f1b4 0cfd 	subs.w	ip, r4, #253	@ 0xfd
 80005e8:	bf88      	it	hi
 80005ea:	f5bc 6fe0 	cmphi.w	ip, #1792	@ 0x700
 80005ee:	d81e      	bhi.n	800062e <__aeabi_dmul+0xde>
 80005f0:	f1be 4f00 	cmp.w	lr, #2147483648	@ 0x80000000
 80005f4:	bf08      	it	eq
 80005f6:	ea5f 0e50 	movseq.w	lr, r0, lsr #1
 80005fa:	f150 0000 	adcs.w	r0, r0, #0
 80005fe:	eb41 5104 	adc.w	r1, r1, r4, lsl #20
 8000602:	bd70      	pop	{r4, r5, r6, pc}
 8000604:	f006 4600 	and.w	r6, r6, #2147483648	@ 0x80000000
 8000608:	ea46 0101 	orr.w	r1, r6, r1
 800060c:	ea40 0002 	orr.w	r0, r0, r2
 8000610:	ea81 0103 	eor.w	r1, r1, r3
 8000614:	ebb4 045c 	subs.w	r4, r4, ip, lsr #1
 8000618:	bfc2      	ittt	gt
 800061a:	ebd4 050c 	rsbsgt	r5, r4, ip
 800061e:	ea41 5104 	orrgt.w	r1, r1, r4, lsl #20
 8000622:	bd70      	popgt	{r4, r5, r6, pc}
 8000624:	f441 1180 	orr.w	r1, r1, #1048576	@ 0x100000
 8000628:	f04f 0e00 	mov.w	lr, #0
 800062c:	3c01      	subs	r4, #1
 800062e:	f300 80ab 	bgt.w	8000788 <__aeabi_dmul+0x238>
 8000632:	f114 0f36 	cmn.w	r4, #54	@ 0x36
 8000636:	bfde      	ittt	le
 8000638:	2000      	movle	r0, #0
 800063a:	f001 4100 	andle.w	r1, r1, #2147483648	@ 0x80000000
 800063e:	bd70      	pople	{r4, r5, r6, pc}
 8000640:	f1c4 0400 	rsb	r4, r4, #0
 8000644:	3c20      	subs	r4, #32
 8000646:	da35      	bge.n	80006b4 <__aeabi_dmul+0x164>
 8000648:	340c      	adds	r4, #12
 800064a:	dc1b      	bgt.n	8000684 <__aeabi_dmul+0x134>
 800064c:	f104 0414 	add.w	r4, r4, #20
 8000650:	f1c4 0520 	rsb	r5, r4, #32
 8000654:	fa00 f305 	lsl.w	r3, r0, r5
 8000658:	fa20 f004 	lsr.w	r0, r0, r4
 800065c:	fa01 f205 	lsl.w	r2, r1, r5
 8000660:	ea40 0002 	orr.w	r0, r0, r2
 8000664:	f001 4200 	and.w	r2, r1, #2147483648	@ 0x80000000
 8000668:	f021 4100 	bic.w	r1, r1, #2147483648	@ 0x80000000
 800066c:	eb10 70d3 	adds.w	r0, r0, r3, lsr #31
 8000670:	fa21 f604 	lsr.w	r6, r1, r4
 8000674:	eb42 0106 	adc.w	r1, r2, r6
 8000678:	ea5e 0e43 	orrs.w	lr, lr, r3, lsl #1
 800067c:	bf08      	it	eq
 800067e:	ea20 70d3 	biceq.w	r0, r0, r3, lsr #31
 8000682:	bd70      	pop	{r4, r5, r6, pc}
 8000684:	f1c4 040c 	rsb	r4, r4, #12
 8000688:	f1c4 0520 	rsb	r5, r4, #32
 800068c:	fa00 f304 	lsl.w	r3, r0, r4
 8000690:	fa20 f005 	lsr.w	r0, r0, r5
 8000694:	fa01 f204 	lsl.w	r2, r1, r4
 8000698:	ea40 0002 	orr.w	r0, r0, r2
 800069c:	f001 4100 	and.w	r1, r1, #2147483648	@ 0x80000000
 80006a0:	eb10 70d3 	adds.w	r0, r0, r3, lsr #31
 80006a4:	f141 0100 	adc.w	r1, r1, #0
 80006a8:	ea5e 0e43 	orrs.w	lr, lr, r3, lsl #1
 80006ac:	bf08      	it	eq
 80006ae:	ea20 70d3 	biceq.w	r0, r0, r3, lsr #31
 80006b2:	bd70      	pop	{r4, r5, r6, pc}
 80006b4:	f1c4 0520 	rsb	r5, r4, #32
 80006b8:	fa00 f205 	lsl.w	r2, r0, r5
 80006bc:	ea4e 0e02 	orr.w	lr, lr, r2
 80006c0:	fa20 f304 	lsr.w	r3, r0, r4
 80006c4:	fa01 f205 	lsl.w	r2, r1, r5
 80006c8:	ea43 0302 	orr.w	r3, r3, r2
 80006cc:	fa21 f004 	lsr.w	r0, r1, r4
 80006d0:	f001 4100 	and.w	r1, r1, #2147483648	@ 0x80000000
 80006d4:	fa21 f204 	lsr.w	r2, r1, r4
 80006d8:	ea20 0002 	bic.w	r0, r0, r2
 80006dc:	eb00 70d3 	add.w	r0, r0, r3, lsr #31
 80006e0:	ea5e 0e43 	orrs.w	lr, lr, r3, lsl #1
 80006e4:	bf08      	it	eq
 80006e6:	ea20 70d3 	biceq.w	r0, r0, r3, lsr #31
 80006ea:	bd70      	pop	{r4, r5, r6, pc}
 80006ec:	f094 0f00 	teq	r4, #0
 80006f0:	d10f      	bne.n	8000712 <__aeabi_dmul+0x1c2>
 80006f2:	f001 4600 	and.w	r6, r1, #2147483648	@ 0x80000000
 80006f6:	0040      	lsls	r0, r0, #1
 80006f8:	eb41 0101 	adc.w	r1, r1, r1
 80006fc:	f411 1f80 	tst.w	r1, #1048576	@ 0x100000
 8000700:	bf08      	it	eq
 8000702:	3c01      	subeq	r4, #1
 8000704:	d0f7      	beq.n	80006f6 <__aeabi_dmul+0x1a6>
 8000706:	ea41 0106 	orr.w	r1, r1, r6
 800070a:	f095 0f00 	teq	r5, #0
 800070e:	bf18      	it	ne
 8000710:	4770      	bxne	lr
 8000712:	f003 4600 	and.w	r6, r3, #2147483648	@ 0x80000000
 8000716:	0052      	lsls	r2, r2, #1
 8000718:	eb43 0303 	adc.w	r3, r3, r3
 800071c:	f413 1f80 	tst.w	r3, #1048576	@ 0x100000
 8000720:	bf08      	it	eq
 8000722:	3d01      	subeq	r5, #1
 8000724:	d0f7      	beq.n	8000716 <__aeabi_dmul+0x1c6>
 8000726:	ea43 0306 	orr.w	r3, r3, r6
 800072a:	4770      	bx	lr
 800072c:	ea94 0f0c 	teq	r4, ip
 8000730:	ea0c 5513 	and.w	r5, ip, r3, lsr #20
 8000734:	bf18      	it	ne
 8000736:	ea95 0f0c 	teqne	r5, ip
 800073a:	d00c      	beq.n	8000756 <__aeabi_dmul+0x206>
 800073c:	ea50 0641 	orrs.w	r6, r0, r1, lsl #1
 8000740:	bf18      	it	ne
 8000742:	ea52 0643 	orrsne.w	r6, r2, r3, lsl #1
 8000746:	d1d1      	bne.n	80006ec <__aeabi_dmul+0x19c>
 8000748:	ea81 0103 	eor.w	r1, r1, r3
 800074c:	f001 4100 	and.w	r1, r1, #2147483648	@ 0x80000000
 8000750:	f04f 0000 	mov.w	r0, #0
 8000754:	bd70      	pop	{r4, r5, r6, pc}
 8000756:	ea50 0641 	orrs.w	r6, r0, r1, lsl #1
 800075a:	bf06      	itte	eq
 800075c:	4610      	moveq	r0, r2
 800075e:	4619      	moveq	r1, r3
 8000760:	ea52 0643 	orrsne.w	r6, r2, r3, lsl #1
 8000764:	d019      	beq.n	800079a <__aeabi_dmul+0x24a>
 8000766:	ea94 0f0c 	teq	r4, ip
 800076a:	d102      	bne.n	8000772 <__aeabi_dmul+0x222>
 800076c:	ea50 3601 	orrs.w	r6, r0, r1, lsl #12
 8000770:	d113      	bne.n	800079a <__aeabi_dmul+0x24a>
 8000772:	ea95 0f0c 	teq	r5, ip
 8000776:	d105      	bne.n	8000784 <__aeabi_dmul+0x234>
 8000778:	ea52 3603 	orrs.w	r6, r2, r3, lsl #12
 800077c:	bf1c      	itt	ne
 800077e:	4610      	movne	r0, r2
 8000780:	4619      	movne	r1, r3
 8000782:	d10a      	bne.n	800079a <__aeabi_dmul+0x24a>
 8000784:	ea81 0103 	eor.w	r1, r1, r3
 8000788:	f001 4100 	and.w	r1, r1, #2147483648	@ 0x80000000
 800078c:	f041 41fe 	orr.w	r1, r1, #2130706432	@ 0x7f000000
 8000790:	f441 0170 	orr.w	r1, r1, #15728640	@ 0xf00000
 8000794:	f04f 0000 	mov.w	r0, #0
 8000798:	bd70      	pop	{r4, r5, r6, pc}
 800079a:	f041 41fe 	orr.w	r1, r1, #2130706432	@ 0x7f000000
 800079e:	f441 0178 	orr.w	r1, r1, #16252928	@ 0xf80000
 80007a2:	bd70      	pop	{r4, r5, r6, pc}

080007a4 <__aeabi_ddiv>:
 80007a4:	b570      	push	{r4, r5, r6, lr}
 80007a6:	f04f 0cff 	mov.w	ip, #255	@ 0xff
 80007aa:	f44c 6ce0 	orr.w	ip, ip, #1792	@ 0x700
 80007ae:	ea1c 5411 	ands.w	r4, ip, r1, lsr #20
 80007b2:	bf1d      	ittte	ne
 80007b4:	ea1c 5513 	andsne.w	r5, ip, r3, lsr #20
 80007b8:	ea94 0f0c 	teqne	r4, ip
 80007bc:	ea95 0f0c 	teqne	r5, ip
 80007c0:	f000 f8a7 	bleq	8000912 <__aeabi_ddiv+0x16e>
 80007c4:	eba4 0405 	sub.w	r4, r4, r5
 80007c8:	ea81 0e03 	eor.w	lr, r1, r3
 80007cc:	ea52 3503 	orrs.w	r5, r2, r3, lsl #12
 80007d0:	ea4f 3101 	mov.w	r1, r1, lsl #12
 80007d4:	f000 8088 	beq.w	80008e8 <__aeabi_ddiv+0x144>
 80007d8:	ea4f 3303 	mov.w	r3, r3, lsl #12
 80007dc:	f04f 5580 	mov.w	r5, #268435456	@ 0x10000000
 80007e0:	ea45 1313 	orr.w	r3, r5, r3, lsr #4
 80007e4:	ea43 6312 	orr.w	r3, r3, r2, lsr #24
 80007e8:	ea4f 2202 	mov.w	r2, r2, lsl #8
 80007ec:	ea45 1511 	orr.w	r5, r5, r1, lsr #4
 80007f0:	ea45 6510 	orr.w	r5, r5, r0, lsr #24
 80007f4:	ea4f 2600 	mov.w	r6, r0, lsl #8
 80007f8:	f00e 4100 	and.w	r1, lr, #2147483648	@ 0x80000000
 80007fc:	429d      	cmp	r5, r3
 80007fe:	bf08      	it	eq
 8000800:	4296      	cmpeq	r6, r2
 8000802:	f144 04fd 	adc.w	r4, r4, #253	@ 0xfd
 8000806:	f504 7440 	add.w	r4, r4, #768	@ 0x300
 800080a:	d202      	bcs.n	8000812 <__aeabi_ddiv+0x6e>
 800080c:	085b      	lsrs	r3, r3, #1
 800080e:	ea4f 0232 	mov.w	r2, r2, rrx
 8000812:	1ab6      	subs	r6, r6, r2
 8000814:	eb65 0503 	sbc.w	r5, r5, r3
 8000818:	085b      	lsrs	r3, r3, #1
 800081a:	ea4f 0232 	mov.w	r2, r2, rrx
 800081e:	f44f 1080 	mov.w	r0, #1048576	@ 0x100000
 8000822:	f44f 2c00 	mov.w	ip, #524288	@ 0x80000
 8000826:	ebb6 0e02 	subs.w	lr, r6, r2
 800082a:	eb75 0e03 	sbcs.w	lr, r5, r3
 800082e:	bf22      	ittt	cs
 8000830:	1ab6      	subcs	r6, r6, r2
 8000832:	4675      	movcs	r5, lr
 8000834:	ea40 000c 	orrcs.w	r0, r0, ip
 8000838:	085b      	lsrs	r3, r3, #1
 800083a:	ea4f 0232 	mov.w	r2, r2, rrx
 800083e:	ebb6 0e02 	subs.w	lr, r6, r2
 8000842:	eb75 0e03 	sbcs.w	lr, r5, r3
 8000846:	bf22      	ittt	cs
 8000848:	1ab6      	subcs	r6, r6, r2
 800084a:	4675      	movcs	r5, lr
 800084c:	ea40 005c 	orrcs.w	r0, r0, ip, lsr #1
 8000850:	085b      	lsrs	r3, r3, #1
 8000852:	ea4f 0232 	mov.w	r2, r2, rrx
 8000856:	ebb6 0e02 	subs.w	lr, r6, r2
 800085a:	eb75 0e03 	sbcs.w	lr, r5, r3
 800085e:	bf22      	ittt	cs
 8000860:	1ab6      	subcs	r6, r6, r2
 8000862:	4675      	movcs	r5, lr
 8000864:	ea40 009c 	orrcs.w	r0, r0, ip, lsr #2
 8000868:	085b      	lsrs	r3, r3, #1
 800086a:	ea4f 0232 	mov.w	r2, r2, rrx
 800086e:	ebb6 0e02 	subs.w	lr, r6, r2
 8000872:	eb75 0e03 	sbcs.w	lr, r5, r3
 8000876:	bf22      	ittt	cs
 8000878:	1ab6      	subcs	r6, r6, r2
 800087a:	4675      	movcs	r5, lr
 800087c:	ea40 00dc 	orrcs.w	r0, r0, ip, lsr #3
 8000880:	ea55 0e06 	orrs.w	lr, r5, r6
 8000884:	d018      	beq.n	80008b8 <__aeabi_ddiv+0x114>
 8000886:	ea4f 1505 	mov.w	r5, r5, lsl #4
 800088a:	ea45 7516 	orr.w	r5, r5, r6, lsr #28
 800088e:	ea4f 1606 	mov.w	r6, r6, lsl #4
 8000892:	ea4f 03c3 	mov.w	r3, r3, lsl #3
 8000896:	ea43 7352 	orr.w	r3, r3, r2, lsr #29
 800089a:	ea4f 02c2 	mov.w	r2, r2, lsl #3
 800089e:	ea5f 1c1c 	movs.w	ip, ip, lsr #4
 80008a2:	d1c0      	bne.n	8000826 <__aeabi_ddiv+0x82>
 80008a4:	f411 1f80 	tst.w	r1, #1048576	@ 0x100000
 80008a8:	d10b      	bne.n	80008c2 <__aeabi_ddiv+0x11e>
 80008aa:	ea41 0100 	orr.w	r1, r1, r0
 80008ae:	f04f 0000 	mov.w	r0, #0
 80008b2:	f04f 4c00 	mov.w	ip, #2147483648	@ 0x80000000
 80008b6:	e7b6      	b.n	8000826 <__aeabi_ddiv+0x82>
 80008b8:	f411 1f80 	tst.w	r1, #1048576	@ 0x100000
 80008bc:	bf04      	itt	eq
 80008be:	4301      	orreq	r1, r0
 80008c0:	2000      	moveq	r0, #0
 80008c2:	f1b4 0cfd 	subs.w	ip, r4, #253	@ 0xfd
 80008c6:	bf88      	it	hi
 80008c8:	f5bc 6fe0 	cmphi.w	ip, #1792	@ 0x700
 80008cc:	f63f aeaf 	bhi.w	800062e <__aeabi_dmul+0xde>
 80008d0:	ebb5 0c03 	subs.w	ip, r5, r3
 80008d4:	bf04      	itt	eq
 80008d6:	ebb6 0c02 	subseq.w	ip, r6, r2
 80008da:	ea5f 0c50 	movseq.w	ip, r0, lsr #1
 80008de:	f150 0000 	adcs.w	r0, r0, #0
 80008e2:	eb41 5104 	adc.w	r1, r1, r4, lsl #20
 80008e6:	bd70      	pop	{r4, r5, r6, pc}
 80008e8:	f00e 4e00 	and.w	lr, lr, #2147483648	@ 0x80000000
 80008ec:	ea4e 3111 	orr.w	r1, lr, r1, lsr #12
 80008f0:	eb14 045c 	adds.w	r4, r4, ip, lsr #1
 80008f4:	bfc2      	ittt	gt
 80008f6:	ebd4 050c 	rsbsgt	r5, r4, ip
 80008fa:	ea41 5104 	orrgt.w	r1, r1, r4, lsl #20
 80008fe:	bd70      	popgt	{r4, r5, r6, pc}
 8000900:	f441 1180 	orr.w	r1, r1, #1048576	@ 0x100000
 8000904:	f04f 0e00 	mov.w	lr, #0
 8000908:	3c01      	subs	r4, #1
 800090a:	e690      	b.n	800062e <__aeabi_dmul+0xde>
 800090c:	ea45 0e06 	orr.w	lr, r5, r6
 8000910:	e68d      	b.n	800062e <__aeabi_dmul+0xde>
 8000912:	ea0c 5513 	and.w	r5, ip, r3, lsr #20
 8000916:	ea94 0f0c 	teq	r4, ip
 800091a:	bf08      	it	eq
 800091c:	ea95 0f0c 	teqeq	r5, ip
 8000920:	f43f af3b 	beq.w	800079a <__aeabi_dmul+0x24a>
 8000924:	ea94 0f0c 	teq	r4, ip
 8000928:	d10a      	bne.n	8000940 <__aeabi_ddiv+0x19c>
 800092a:	ea50 3401 	orrs.w	r4, r0, r1, lsl #12
 800092e:	f47f af34 	bne.w	800079a <__aeabi_dmul+0x24a>
 8000932:	ea95 0f0c 	teq	r5, ip
 8000936:	f47f af25 	bne.w	8000784 <__aeabi_dmul+0x234>
 800093a:	4610      	mov	r0, r2
 800093c:	4619      	mov	r1, r3
 800093e:	e72c      	b.n	800079a <__aeabi_dmul+0x24a>
 8000940:	ea95 0f0c 	teq	r5, ip
 8000944:	d106      	bne.n	8000954 <__aeabi_ddiv+0x1b0>
 8000946:	ea52 3503 	orrs.w	r5, r2, r3, lsl #12
 800094a:	f43f aefd 	beq.w	8000748 <__aeabi_dmul+0x1f8>
 800094e:	4610      	mov	r0, r2
 8000950:	4619      	mov	r1, r3
 8000952:	e722      	b.n	800079a <__aeabi_dmul+0x24a>
 8000954:	ea50 0641 	orrs.w	r6, r0, r1, lsl #1
 8000958:	bf18      	it	ne
 800095a:	ea52 0643 	orrsne.w	r6, r2, r3, lsl #1
 800095e:	f47f aec5 	bne.w	80006ec <__aeabi_dmul+0x19c>
 8000962:	ea50 0441 	orrs.w	r4, r0, r1, lsl #1
 8000966:	f47f af0d 	bne.w	8000784 <__aeabi_dmul+0x234>
 800096a:	ea52 0543 	orrs.w	r5, r2, r3, lsl #1
 800096e:	f47f aeeb 	bne.w	8000748 <__aeabi_dmul+0x1f8>
 8000972:	e712      	b.n	800079a <__aeabi_dmul+0x24a>

08000974 <__aeabi_d2uiz>:
 8000974:	004a      	lsls	r2, r1, #1
 8000976:	d211      	bcs.n	800099c <__aeabi_d2uiz+0x28>
 8000978:	f512 1200 	adds.w	r2, r2, #2097152	@ 0x200000
 800097c:	d211      	bcs.n	80009a2 <__aeabi_d2uiz+0x2e>
 800097e:	d50d      	bpl.n	800099c <__aeabi_d2uiz+0x28>
 8000980:	f46f 7378 	mvn.w	r3, #992	@ 0x3e0
 8000984:	ebb3 5262 	subs.w	r2, r3, r2, asr #21
 8000988:	d40e      	bmi.n	80009a8 <__aeabi_d2uiz+0x34>
 800098a:	ea4f 23c1 	mov.w	r3, r1, lsl #11
 800098e:	f043 4300 	orr.w	r3, r3, #2147483648	@ 0x80000000
 8000992:	ea43 5350 	orr.w	r3, r3, r0, lsr #21
 8000996:	fa23 f002 	lsr.w	r0, r3, r2
 800099a:	4770      	bx	lr
 800099c:	f04f 0000 	mov.w	r0, #0
 80009a0:	4770      	bx	lr
 80009a2:	ea50 3001 	orrs.w	r0, r0, r1, lsl #12
 80009a6:	d102      	bne.n	80009ae <__aeabi_d2uiz+0x3a>
 80009a8:	f04f 30ff 	mov.w	r0, #4294967295	@ 0xffffffff
 80009ac:	4770      	bx	lr
 80009ae:	f04f 0000 	mov.w	r0, #0
 80009b2:	4770      	bx	lr

080009b4 <Bootloader_Get_Version>:
static u8 Host_Address_Verification(u32 HOST_Address);

/**********************************************************************************************************************
 *  LOCAL FUNCTIONS
 *********************************************************************************************************************/
static void Bootloader_Get_Version(u8* BL_HOST_BUFFER){
 80009b4:	b580      	push	{r7, lr}
 80009b6:	b086      	sub	sp, #24
 80009b8:	af00      	add	r7, sp, #0
 80009ba:	6078      	str	r0, [r7, #4]

	u8 Bootloader_Version[4]={
 80009bc:	f44f 73e4 	mov.w	r3, #456	@ 0x1c8
 80009c0:	60fb      	str	r3, [r7, #12]
			CBL_SW_MAJOR_VERSION,
			CBL_SW_MINOR_VERSION,
			CBL_SW_PATCH_VERSION
	};

	u16 Host_CMD_Packet_Len = 0;
 80009c2:	2300      	movs	r3, #0
 80009c4:	82fb      	strh	r3, [r7, #22]
	u32 Host_CRC32 = 0; 	// from esp or raspberry
 80009c6:	2300      	movs	r3, #0
 80009c8:	613b      	str	r3, [r7, #16]

	Host_CMD_Packet_Len = BL_HOST_BUFFER[0]+1;
 80009ca:	687b      	ldr	r3, [r7, #4]
 80009cc:	781b      	ldrb	r3, [r3, #0]
 80009ce:	3301      	adds	r3, #1
 80009d0:	82fb      	strh	r3, [r7, #22]
	Host_CRC32 = *((u32*)(BL_HOST_BUFFER + Host_CMD_Packet_Len - 4));
 80009d2:	8afb      	ldrh	r3, [r7, #22]
 80009d4:	3b04      	subs	r3, #4
 80009d6:	687a      	ldr	r2, [r7, #4]
 80009d8:	4413      	add	r3, r2
 80009da:	681b      	ldr	r3, [r3, #0]
 80009dc:	613b      	str	r3, [r7, #16]


	/********** CRC VERIFY *********/

	if(Bootloader_CRC_Verify(BL_HOST_BUFFER,Host_CMD_Packet_Len-4,Host_CRC32) == CRC_VERFICATION_PASSED){
 80009de:	8afb      	ldrh	r3, [r7, #22]
 80009e0:	3b04      	subs	r3, #4
 80009e2:	693a      	ldr	r2, [r7, #16]
 80009e4:	4619      	mov	r1, r3
 80009e6:	6878      	ldr	r0, [r7, #4]
 80009e8:	f000 f954 	bl	8000c94 <Bootloader_CRC_Verify>
 80009ec:	4603      	mov	r3, r0
 80009ee:	2b01      	cmp	r3, #1
 80009f0:	d109      	bne.n	8000a06 <Bootloader_Get_Version+0x52>

		Bootloader_Send_ACK(4);
 80009f2:	2004      	movs	r0, #4
 80009f4:	f000 f982 	bl	8000cfc <Bootloader_Send_ACK>
		Bootloader_Send_Data_To_Host(Bootloader_Version,4);
 80009f8:	f107 030c 	add.w	r3, r7, #12
 80009fc:	2104      	movs	r1, #4
 80009fe:	4618      	mov	r0, r3
 8000a00:	f000 f9a0 	bl	8000d44 <Bootloader_Send_Data_To_Host>
	}else{

		Bootloader_Send_NOT_ACK();
	}

}
 8000a04:	e001      	b.n	8000a0a <Bootloader_Get_Version+0x56>
		Bootloader_Send_NOT_ACK();
 8000a06:	f000 f98e 	bl	8000d26 <Bootloader_Send_NOT_ACK>
}
 8000a0a:	bf00      	nop
 8000a0c:	3718      	adds	r7, #24
 8000a0e:	46bd      	mov	sp, r7
 8000a10:	bd80      	pop	{r7, pc}
	...

08000a14 <Bootloader_Get_Chip_ID>:
static void Bootloader_Get_Chip_ID(u8* BL_HOST_BUFFER){
 8000a14:	b580      	push	{r7, lr}
 8000a16:	b086      	sub	sp, #24
 8000a18:	af00      	add	r7, sp, #0
 8000a1a:	6078      	str	r0, [r7, #4]

	u16 Host_CMD_Packet_Len = 0;
 8000a1c:	2300      	movs	r3, #0
 8000a1e:	82fb      	strh	r3, [r7, #22]
	u32 Host_CRC32 = 0; 	// from esp or raspberry
 8000a20:	2300      	movs	r3, #0
 8000a22:	613b      	str	r3, [r7, #16]

	Host_CMD_Packet_Len = BL_HOST_BUFFER[0]+1;
 8000a24:	687b      	ldr	r3, [r7, #4]
 8000a26:	781b      	ldrb	r3, [r3, #0]
 8000a28:	3301      	adds	r3, #1
 8000a2a:	82fb      	strh	r3, [r7, #22]
	Host_CRC32 = *((u32*)(BL_HOST_BUFFER + Host_CMD_Packet_Len - 4));
 8000a2c:	8afb      	ldrh	r3, [r7, #22]
 8000a2e:	3b04      	subs	r3, #4
 8000a30:	687a      	ldr	r2, [r7, #4]
 8000a32:	4413      	add	r3, r2
 8000a34:	681b      	ldr	r3, [r3, #0]
 8000a36:	613b      	str	r3, [r7, #16]

	u16 MCU_Chip_ID = 0;
 8000a38:	2300      	movs	r3, #0
 8000a3a:	81fb      	strh	r3, [r7, #14]

	MCU_Chip_ID = DBGMCU_IDCODE & 0x00000FFF;
 8000a3c:	4b10      	ldr	r3, [pc, #64]	@ (8000a80 <Bootloader_Get_Chip_ID+0x6c>)
 8000a3e:	681b      	ldr	r3, [r3, #0]
 8000a40:	b29b      	uxth	r3, r3
 8000a42:	f3c3 030b 	ubfx	r3, r3, #0, #12
 8000a46:	b29b      	uxth	r3, r3
 8000a48:	81fb      	strh	r3, [r7, #14]

	/********** CRC VERIFY *********/

	if(Bootloader_CRC_Verify(BL_HOST_BUFFER,Host_CMD_Packet_Len-4,Host_CRC32) == CRC_VERFICATION_PASSED){
 8000a4a:	8afb      	ldrh	r3, [r7, #22]
 8000a4c:	3b04      	subs	r3, #4
 8000a4e:	693a      	ldr	r2, [r7, #16]
 8000a50:	4619      	mov	r1, r3
 8000a52:	6878      	ldr	r0, [r7, #4]
 8000a54:	f000 f91e 	bl	8000c94 <Bootloader_CRC_Verify>
 8000a58:	4603      	mov	r3, r0
 8000a5a:	2b01      	cmp	r3, #1
 8000a5c:	d109      	bne.n	8000a72 <Bootloader_Get_Chip_ID+0x5e>

		Bootloader_Send_ACK(2); // 12 bit ~ 2 bytes
 8000a5e:	2002      	movs	r0, #2
 8000a60:	f000 f94c 	bl	8000cfc <Bootloader_Send_ACK>
		Bootloader_Send_Data_To_Host(((u8*)&MCU_Chip_ID),2);
 8000a64:	f107 030e 	add.w	r3, r7, #14
 8000a68:	2102      	movs	r1, #2
 8000a6a:	4618      	mov	r0, r3
 8000a6c:	f000 f96a 	bl	8000d44 <Bootloader_Send_Data_To_Host>
	}else{

		Bootloader_Send_NOT_ACK();
	}

}
 8000a70:	e001      	b.n	8000a76 <Bootloader_Get_Chip_ID+0x62>
		Bootloader_Send_NOT_ACK();
 8000a72:	f000 f958 	bl	8000d26 <Bootloader_Send_NOT_ACK>
}
 8000a76:	bf00      	nop
 8000a78:	3718      	adds	r7, #24
 8000a7a:	46bd      	mov	sp, r7
 8000a7c:	bd80      	pop	{r7, pc}
 8000a7e:	bf00      	nop
 8000a80:	e0042000 	.word	0xe0042000

08000a84 <Bootloader_Get_ReadProtection_Status>:
static void Bootloader_Get_ReadProtection_Status(u8* BL_HOST_BUFFER){
 8000a84:	b580      	push	{r7, lr}
 8000a86:	b086      	sub	sp, #24
 8000a88:	af00      	add	r7, sp, #0
 8000a8a:	6078      	str	r0, [r7, #4]


	u16 Host_CMD_Packet_Len = 0;
 8000a8c:	2300      	movs	r3, #0
 8000a8e:	82fb      	strh	r3, [r7, #22]
	u32 Host_CRC32 = 0; 	// from esp or raspberry
 8000a90:	2300      	movs	r3, #0
 8000a92:	613b      	str	r3, [r7, #16]

	Host_CMD_Packet_Len = BL_HOST_BUFFER[0]+1;
 8000a94:	687b      	ldr	r3, [r7, #4]
 8000a96:	781b      	ldrb	r3, [r3, #0]
 8000a98:	3301      	adds	r3, #1
 8000a9a:	82fb      	strh	r3, [r7, #22]
	Host_CRC32 = *((u32*)(BL_HOST_BUFFER + Host_CMD_Packet_Len - 4));
 8000a9c:	8afb      	ldrh	r3, [r7, #22]
 8000a9e:	3b04      	subs	r3, #4
 8000aa0:	687a      	ldr	r2, [r7, #4]
 8000aa2:	4413      	add	r3, r2
 8000aa4:	681b      	ldr	r3, [r3, #0]
 8000aa6:	613b      	str	r3, [r7, #16]

	u8 RDP_Level = 0;
 8000aa8:	2300      	movs	r3, #0
 8000aaa:	73fb      	strb	r3, [r7, #15]

	RDP_Level = FPEC_GetReadProtectionLevel();
 8000aac:	f000 fabc 	bl	8001028 <FPEC_GetReadProtectionLevel>
 8000ab0:	4603      	mov	r3, r0
 8000ab2:	73fb      	strb	r3, [r7, #15]

	/********** CRC VERIFY *********/

	if(Bootloader_CRC_Verify(BL_HOST_BUFFER,Host_CMD_Packet_Len-4,Host_CRC32) == CRC_VERFICATION_PASSED){
 8000ab4:	8afb      	ldrh	r3, [r7, #22]
 8000ab6:	3b04      	subs	r3, #4
 8000ab8:	693a      	ldr	r2, [r7, #16]
 8000aba:	4619      	mov	r1, r3
 8000abc:	6878      	ldr	r0, [r7, #4]
 8000abe:	f000 f8e9 	bl	8000c94 <Bootloader_CRC_Verify>
 8000ac2:	4603      	mov	r3, r0
 8000ac4:	2b01      	cmp	r3, #1
 8000ac6:	d109      	bne.n	8000adc <Bootloader_Get_ReadProtection_Status+0x58>

		Bootloader_Send_ACK(1);
 8000ac8:	2001      	movs	r0, #1
 8000aca:	f000 f917 	bl	8000cfc <Bootloader_Send_ACK>
		Bootloader_Send_Data_To_Host(&RDP_Level,1);
 8000ace:	f107 030f 	add.w	r3, r7, #15
 8000ad2:	2101      	movs	r1, #1
 8000ad4:	4618      	mov	r0, r3
 8000ad6:	f000 f935 	bl	8000d44 <Bootloader_Send_Data_To_Host>
	}else{

		Bootloader_Send_NOT_ACK();
	}

}
 8000ada:	e001      	b.n	8000ae0 <Bootloader_Get_ReadProtection_Status+0x5c>
		Bootloader_Send_NOT_ACK();
 8000adc:	f000 f923 	bl	8000d26 <Bootloader_Send_NOT_ACK>
}
 8000ae0:	bf00      	nop
 8000ae2:	3718      	adds	r7, #24
 8000ae4:	46bd      	mov	sp, r7
 8000ae6:	bd80      	pop	{r7, pc}

08000ae8 <Bootloader_Application_Erase>:
static void Bootloader_Application_Erase(u8* BL_HOST_BUFFER){
 8000ae8:	b580      	push	{r7, lr}
 8000aea:	b086      	sub	sp, #24
 8000aec:	af00      	add	r7, sp, #0
 8000aee:	6078      	str	r0, [r7, #4]


	u16 Host_CMD_Packet_Len = 0;
 8000af0:	2300      	movs	r3, #0
 8000af2:	82fb      	strh	r3, [r7, #22]
	u32 Host_CRC32 = 0; 	// from esp or raspberry
 8000af4:	2300      	movs	r3, #0
 8000af6:	613b      	str	r3, [r7, #16]

	Host_CMD_Packet_Len = BL_HOST_BUFFER[0]+1;
 8000af8:	687b      	ldr	r3, [r7, #4]
 8000afa:	781b      	ldrb	r3, [r3, #0]
 8000afc:	3301      	adds	r3, #1
 8000afe:	82fb      	strh	r3, [r7, #22]
	Host_CRC32 = *((u32*)(BL_HOST_BUFFER + Host_CMD_Packet_Len - 4));
 8000b00:	8afb      	ldrh	r3, [r7, #22]
 8000b02:	3b04      	subs	r3, #4
 8000b04:	687a      	ldr	r2, [r7, #4]
 8000b06:	4413      	add	r3, r2
 8000b08:	681b      	ldr	r3, [r3, #0]
 8000b0a:	613b      	str	r3, [r7, #16]

	u8 Erase_Status = 0;
 8000b0c:	2300      	movs	r3, #0
 8000b0e:	73fb      	strb	r3, [r7, #15]

	/********** CRC VERIFY *********/

	if(Bootloader_CRC_Verify(BL_HOST_BUFFER,Host_CMD_Packet_Len-4,Host_CRC32) == CRC_VERFICATION_PASSED){
 8000b10:	8afb      	ldrh	r3, [r7, #22]
 8000b12:	3b04      	subs	r3, #4
 8000b14:	693a      	ldr	r2, [r7, #16]
 8000b16:	4619      	mov	r1, r3
 8000b18:	6878      	ldr	r0, [r7, #4]
 8000b1a:	f000 f8bb 	bl	8000c94 <Bootloader_CRC_Verify>
 8000b1e:	4603      	mov	r3, r0
 8000b20:	2b01      	cmp	r3, #1
 8000b22:	d10f      	bne.n	8000b44 <Bootloader_Application_Erase+0x5c>

		Bootloader_Send_ACK(1);
 8000b24:	2001      	movs	r0, #1
 8000b26:	f000 f8e9 	bl	8000cfc <Bootloader_Send_ACK>
		FPEC_EraseSectors(APPLICATION_SECTOR_NUM, FLASH_NUM_OF_SECTORS-APPLICATION_SECTOR_NUM);
 8000b2a:	2107      	movs	r1, #7
 8000b2c:	2001      	movs	r0, #1
 8000b2e:	f000 fa3b 	bl	8000fa8 <FPEC_EraseSectors>
		Erase_Status = ERASE_SUCCESS;
 8000b32:	2301      	movs	r3, #1
 8000b34:	73fb      	strb	r3, [r7, #15]
		Bootloader_Send_Data_To_Host(&Erase_Status,1);
 8000b36:	f107 030f 	add.w	r3, r7, #15
 8000b3a:	2101      	movs	r1, #1
 8000b3c:	4618      	mov	r0, r3
 8000b3e:	f000 f901 	bl	8000d44 <Bootloader_Send_Data_To_Host>
	}else{

		Bootloader_Send_NOT_ACK();
	}

}
 8000b42:	e001      	b.n	8000b48 <Bootloader_Application_Erase+0x60>
		Bootloader_Send_NOT_ACK();
 8000b44:	f000 f8ef 	bl	8000d26 <Bootloader_Send_NOT_ACK>
}
 8000b48:	bf00      	nop
 8000b4a:	3718      	adds	r7, #24
 8000b4c:	46bd      	mov	sp, r7
 8000b4e:	bd80      	pop	{r7, pc}

08000b50 <Bootloader_Upload_Application>:
static void Bootloader_Upload_Application(u8* BL_HOST_BUFFER){
 8000b50:	b580      	push	{r7, lr}
 8000b52:	b086      	sub	sp, #24
 8000b54:	af00      	add	r7, sp, #0
 8000b56:	6078      	str	r0, [r7, #4]

	u16 Host_CMD_Packet_Len = 0;
 8000b58:	2300      	movs	r3, #0
 8000b5a:	82fb      	strh	r3, [r7, #22]
	u32 Host_CRC32 = 0; 	// from esp or raspberry
 8000b5c:	2300      	movs	r3, #0
 8000b5e:	613b      	str	r3, [r7, #16]

	Host_CMD_Packet_Len = BL_HOST_BUFFER[0]+1;
 8000b60:	687b      	ldr	r3, [r7, #4]
 8000b62:	781b      	ldrb	r3, [r3, #0]
 8000b64:	3301      	adds	r3, #1
 8000b66:	82fb      	strh	r3, [r7, #22]
	Host_CRC32 = *((u32*)(BL_HOST_BUFFER + Host_CMD_Packet_Len - 4));
 8000b68:	8afb      	ldrh	r3, [r7, #22]
 8000b6a:	3b04      	subs	r3, #4
 8000b6c:	687a      	ldr	r2, [r7, #4]
 8000b6e:	4413      	add	r3, r2
 8000b70:	681b      	ldr	r3, [r3, #0]
 8000b72:	613b      	str	r3, [r7, #16]

	u32 HOST_Address = 0;
 8000b74:	2300      	movs	r3, #0
 8000b76:	60fb      	str	r3, [r7, #12]
	u8 PAYLOAD_Length = 0;
 8000b78:	2300      	movs	r3, #0
 8000b7a:	72fb      	strb	r3, [r7, #11]
	u8 Address_Verification = Address_Verification_FAILED;
 8000b7c:	2304      	movs	r3, #4
 8000b7e:	72bb      	strb	r3, [r7, #10]


	/********** CRC VERIFY *********/

	if(Bootloader_CRC_Verify(BL_HOST_BUFFER,Host_CMD_Packet_Len-4,Host_CRC32) == CRC_VERFICATION_PASSED){
 8000b80:	8afb      	ldrh	r3, [r7, #22]
 8000b82:	3b04      	subs	r3, #4
 8000b84:	693a      	ldr	r2, [r7, #16]
 8000b86:	4619      	mov	r1, r3
 8000b88:	6878      	ldr	r0, [r7, #4]
 8000b8a:	f000 f883 	bl	8000c94 <Bootloader_CRC_Verify>
 8000b8e:	4603      	mov	r3, r0
 8000b90:	2b01      	cmp	r3, #1
 8000b92:	d126      	bne.n	8000be2 <Bootloader_Upload_Application+0x92>

		Bootloader_Send_ACK(1);
 8000b94:	2001      	movs	r0, #1
 8000b96:	f000 f8b1 	bl	8000cfc <Bootloader_Send_ACK>
		HOST_Address = *((u32*)&BL_HOST_BUFFER[2]);
 8000b9a:	687b      	ldr	r3, [r7, #4]
 8000b9c:	f8d3 3002 	ldr.w	r3, [r3, #2]
 8000ba0:	60fb      	str	r3, [r7, #12]
		PAYLOAD_Length = BL_HOST_BUFFER[6];
 8000ba2:	687b      	ldr	r3, [r7, #4]
 8000ba4:	799b      	ldrb	r3, [r3, #6]
 8000ba6:	72fb      	strb	r3, [r7, #11]
		Address_Verification = Host_Address_Verification(HOST_Address);
 8000ba8:	68f8      	ldr	r0, [r7, #12]
 8000baa:	f000 f8df 	bl	8000d6c <Host_Address_Verification>
 8000bae:	4603      	mov	r3, r0
 8000bb0:	72bb      	strb	r3, [r7, #10]
		if(Address_Verification==Address_Verification_SUCCESS){
 8000bb2:	7abb      	ldrb	r3, [r7, #10]
 8000bb4:	2b01      	cmp	r3, #1
 8000bb6:	d10d      	bne.n	8000bd4 <Bootloader_Upload_Application+0x84>
			// upload

			FPEC_Write(HOST_Address, &BL_HOST_BUFFER[7], PAYLOAD_Length);
 8000bb8:	687b      	ldr	r3, [r7, #4]
 8000bba:	3307      	adds	r3, #7
 8000bbc:	7afa      	ldrb	r2, [r7, #11]
 8000bbe:	4619      	mov	r1, r3
 8000bc0:	68f8      	ldr	r0, [r7, #12]
 8000bc2:	f000 f9bb 	bl	8000f3c <FPEC_Write>

			Bootloader_Send_Data_To_Host(&Address_Verification,1);
 8000bc6:	f107 030a 	add.w	r3, r7, #10
 8000bca:	2101      	movs	r1, #1
 8000bcc:	4618      	mov	r0, r3
 8000bce:	f000 f8b9 	bl	8000d44 <Bootloader_Send_Data_To_Host>

		Bootloader_Send_NOT_ACK();
	}


}
 8000bd2:	e008      	b.n	8000be6 <Bootloader_Upload_Application+0x96>
			Bootloader_Send_Data_To_Host(&Address_Verification,1);
 8000bd4:	f107 030a 	add.w	r3, r7, #10
 8000bd8:	2101      	movs	r1, #1
 8000bda:	4618      	mov	r0, r3
 8000bdc:	f000 f8b2 	bl	8000d44 <Bootloader_Send_Data_To_Host>
}
 8000be0:	e001      	b.n	8000be6 <Bootloader_Upload_Application+0x96>
		Bootloader_Send_NOT_ACK();
 8000be2:	f000 f8a0 	bl	8000d26 <Bootloader_Send_NOT_ACK>
}
 8000be6:	bf00      	nop
 8000be8:	3718      	adds	r7, #24
 8000bea:	46bd      	mov	sp, r7
 8000bec:	bd80      	pop	{r7, pc}
	...

08000bf0 <Bootloader_Jump_To_Application>:
static void Bootloader_Jump_To_Application(u8* BL_HOST_BUFFER){
 8000bf0:	b580      	push	{r7, lr}
 8000bf2:	b088      	sub	sp, #32
 8000bf4:	af00      	add	r7, sp, #0
 8000bf6:	6078      	str	r0, [r7, #4]

		u16 Host_CMD_Packet_Len = 0;
 8000bf8:	2300      	movs	r3, #0
 8000bfa:	83fb      	strh	r3, [r7, #30]
		u32 Host_CRC32 = 0; 	// from esp or raspberry
 8000bfc:	2300      	movs	r3, #0
 8000bfe:	61bb      	str	r3, [r7, #24]

		Host_CMD_Packet_Len = BL_HOST_BUFFER[0]+1;
 8000c00:	687b      	ldr	r3, [r7, #4]
 8000c02:	781b      	ldrb	r3, [r3, #0]
 8000c04:	3301      	adds	r3, #1
 8000c06:	83fb      	strh	r3, [r7, #30]
		Host_CRC32 = *((u32*)(BL_HOST_BUFFER + Host_CMD_Packet_Len - 4));
 8000c08:	8bfb      	ldrh	r3, [r7, #30]
 8000c0a:	3b04      	subs	r3, #4
 8000c0c:	687a      	ldr	r2, [r7, #4]
 8000c0e:	4413      	add	r3, r2
 8000c10:	681b      	ldr	r3, [r3, #0]
 8000c12:	61bb      	str	r3, [r7, #24]

		u32 MainAppAddress = 0;
 8000c14:	2300      	movs	r3, #0
 8000c16:	617b      	str	r3, [r7, #20]
		pMainApp ResetHandler_Address = NULL; // pointer to function
 8000c18:	2300      	movs	r3, #0
 8000c1a:	613b      	str	r3, [r7, #16]
		u8 Jump_Status =  JUMP_SUCCESS;
 8000c1c:	2301      	movs	r3, #1
 8000c1e:	73fb      	strb	r3, [r7, #15]

		/********** CRC VERIFY *********/

		if(Bootloader_CRC_Verify(BL_HOST_BUFFER,Host_CMD_Packet_Len-4,Host_CRC32) == CRC_VERFICATION_PASSED){
 8000c20:	8bfb      	ldrh	r3, [r7, #30]
 8000c22:	3b04      	subs	r3, #4
 8000c24:	69ba      	ldr	r2, [r7, #24]
 8000c26:	4619      	mov	r1, r3
 8000c28:	6878      	ldr	r0, [r7, #4]
 8000c2a:	f000 f833 	bl	8000c94 <Bootloader_CRC_Verify>
 8000c2e:	4603      	mov	r3, r0
 8000c30:	2b01      	cmp	r3, #1
 8000c32:	d122      	bne.n	8000c7a <Bootloader_Jump_To_Application+0x8a>

			Bootloader_Send_ACK(1);
 8000c34:	2001      	movs	r0, #1
 8000c36:	f000 f861 	bl	8000cfc <Bootloader_Send_ACK>

			MainAppAddress = *((volatile u32*)(APPLICATION_START_ADDRESS + 4));
 8000c3a:	4b13      	ldr	r3, [pc, #76]	@ (8000c88 <Bootloader_Jump_To_Application+0x98>)
 8000c3c:	681b      	ldr	r3, [r3, #0]
 8000c3e:	617b      	str	r3, [r7, #20]
			ResetHandler_Address = (pMainApp)MainAppAddress;
 8000c40:	697b      	ldr	r3, [r7, #20]
 8000c42:	613b      	str	r3, [r7, #16]
			if(MainAppAddress == 0xFFFFFFFF){
 8000c44:	697b      	ldr	r3, [r7, #20]
 8000c46:	f1b3 3fff 	cmp.w	r3, #4294967295	@ 0xffffffff
 8000c4a:	d108      	bne.n	8000c5e <Bootloader_Jump_To_Application+0x6e>
				Jump_Status = JUMP_FAILED;
 8000c4c:	2304      	movs	r3, #4
 8000c4e:	73fb      	strb	r3, [r7, #15]
				Bootloader_Send_Data_To_Host(&Jump_Status,1);
 8000c50:	f107 030f 	add.w	r3, r7, #15
 8000c54:	2101      	movs	r1, #1
 8000c56:	4618      	mov	r0, r3
 8000c58:	f000 f874 	bl	8000d44 <Bootloader_Send_Data_To_Host>
		}else{

			Bootloader_Send_NOT_ACK();
		}

}
 8000c5c:	e00f      	b.n	8000c7e <Bootloader_Jump_To_Application+0x8e>
				Jump_Status =  JUMP_SUCCESS;
 8000c5e:	2301      	movs	r3, #1
 8000c60:	73fb      	strb	r3, [r7, #15]
				Bootloader_Send_Data_To_Host(&Jump_Status,1);
 8000c62:	f107 030f 	add.w	r3, r7, #15
 8000c66:	2101      	movs	r1, #1
 8000c68:	4618      	mov	r0, r3
 8000c6a:	f000 f86b 	bl	8000d44 <Bootloader_Send_Data_To_Host>
				SCB->VTOR = APPLICATION_START_ADDRESS;
 8000c6e:	4b07      	ldr	r3, [pc, #28]	@ (8000c8c <Bootloader_Jump_To_Application+0x9c>)
 8000c70:	4a07      	ldr	r2, [pc, #28]	@ (8000c90 <Bootloader_Jump_To_Application+0xa0>)
 8000c72:	609a      	str	r2, [r3, #8]
				ResetHandler_Address();
 8000c74:	693b      	ldr	r3, [r7, #16]
 8000c76:	4798      	blx	r3
}
 8000c78:	e001      	b.n	8000c7e <Bootloader_Jump_To_Application+0x8e>
			Bootloader_Send_NOT_ACK();
 8000c7a:	f000 f854 	bl	8000d26 <Bootloader_Send_NOT_ACK>
}
 8000c7e:	bf00      	nop
 8000c80:	3720      	adds	r7, #32
 8000c82:	46bd      	mov	sp, r7
 8000c84:	bd80      	pop	{r7, pc}
 8000c86:	bf00      	nop
 8000c88:	08004004 	.word	0x08004004
 8000c8c:	e000ed00 	.word	0xe000ed00
 8000c90:	08004000 	.word	0x08004000

08000c94 <Bootloader_CRC_Verify>:

static u8   Bootloader_CRC_Verify(u8* CRC_Data, u32 CRC_Data_Size, u32 Host_CRC){
 8000c94:	b580      	push	{r7, lr}
 8000c96:	b088      	sub	sp, #32
 8000c98:	af00      	add	r7, sp, #0
 8000c9a:	60f8      	str	r0, [r7, #12]
 8000c9c:	60b9      	str	r1, [r7, #8]
 8000c9e:	607a      	str	r2, [r7, #4]

	u8 CRC_Status = CRC_VERFICATION_FAILED;
 8000ca0:	2300      	movs	r3, #0
 8000ca2:	77fb      	strb	r3, [r7, #31]
	u32 CRC_Calculated = 0;
 8000ca4:	2300      	movs	r3, #0
 8000ca6:	61bb      	str	r3, [r7, #24]
	u8 Data_Counter = 0;
 8000ca8:	2300      	movs	r3, #0
 8000caa:	75fb      	strb	r3, [r7, #23]
	u32 Data_Buffer = 0;
 8000cac:	2300      	movs	r3, #0
 8000cae:	613b      	str	r3, [r7, #16]

	for(Data_Counter = 0; Data_Counter<CRC_Data_Size;Data_Counter++ ){
 8000cb0:	2300      	movs	r3, #0
 8000cb2:	75fb      	strb	r3, [r7, #23]
 8000cb4:	e00e      	b.n	8000cd4 <Bootloader_CRC_Verify+0x40>

		Data_Buffer = CRC_Data[Data_Counter];
 8000cb6:	7dfb      	ldrb	r3, [r7, #23]
 8000cb8:	68fa      	ldr	r2, [r7, #12]
 8000cba:	4413      	add	r3, r2
 8000cbc:	781b      	ldrb	r3, [r3, #0]
 8000cbe:	613b      	str	r3, [r7, #16]
		CRC_Calculated = CRC_Accumlate(&Data_Buffer, 1);
 8000cc0:	f107 0310 	add.w	r3, r7, #16
 8000cc4:	2101      	movs	r1, #1
 8000cc6:	4618      	mov	r0, r3
 8000cc8:	f000 f8dc 	bl	8000e84 <CRC_Accumlate>
 8000ccc:	61b8      	str	r0, [r7, #24]
	for(Data_Counter = 0; Data_Counter<CRC_Data_Size;Data_Counter++ ){
 8000cce:	7dfb      	ldrb	r3, [r7, #23]
 8000cd0:	3301      	adds	r3, #1
 8000cd2:	75fb      	strb	r3, [r7, #23]
 8000cd4:	7dfb      	ldrb	r3, [r7, #23]
 8000cd6:	68ba      	ldr	r2, [r7, #8]
 8000cd8:	429a      	cmp	r2, r3
 8000cda:	d8ec      	bhi.n	8000cb6 <Bootloader_CRC_Verify+0x22>

	}
	CRC_RESET_DR();
 8000cdc:	f000 f8c2 	bl	8000e64 <CRC_RESET_DR>

	if(Host_CRC == CRC_Calculated){
 8000ce0:	687a      	ldr	r2, [r7, #4]
 8000ce2:	69bb      	ldr	r3, [r7, #24]
 8000ce4:	429a      	cmp	r2, r3
 8000ce6:	d102      	bne.n	8000cee <Bootloader_CRC_Verify+0x5a>
		CRC_Status = CRC_VERFICATION_PASSED;
 8000ce8:	2301      	movs	r3, #1
 8000cea:	77fb      	strb	r3, [r7, #31]
 8000cec:	e001      	b.n	8000cf2 <Bootloader_CRC_Verify+0x5e>
	}else{
		CRC_Status = CRC_VERFICATION_FAILED;
 8000cee:	2300      	movs	r3, #0
 8000cf0:	77fb      	strb	r3, [r7, #31]
	}


	return CRC_Status;
 8000cf2:	7ffb      	ldrb	r3, [r7, #31]

}
 8000cf4:	4618      	mov	r0, r3
 8000cf6:	3720      	adds	r7, #32
 8000cf8:	46bd      	mov	sp, r7
 8000cfa:	bd80      	pop	{r7, pc}

08000cfc <Bootloader_Send_ACK>:

static void Bootloader_Send_ACK(u8 Data_Length){
 8000cfc:	b580      	push	{r7, lr}
 8000cfe:	b084      	sub	sp, #16
 8000d00:	af00      	add	r7, sp, #0
 8000d02:	4603      	mov	r3, r0
 8000d04:	71fb      	strb	r3, [r7, #7]

	u8 Ack_Arr[2]={0};
 8000d06:	2300      	movs	r3, #0
 8000d08:	81bb      	strh	r3, [r7, #12]
	Ack_Arr[0] = CBL_SEND_ACK;
 8000d0a:	23ff      	movs	r3, #255	@ 0xff
 8000d0c:	733b      	strb	r3, [r7, #12]
	Ack_Arr[1] = Data_Length;
 8000d0e:	79fb      	ldrb	r3, [r7, #7]
 8000d10:	737b      	strb	r3, [r7, #13]

	Bootloader_Send_Data_To_Host(Ack_Arr, 2);
 8000d12:	f107 030c 	add.w	r3, r7, #12
 8000d16:	2102      	movs	r1, #2
 8000d18:	4618      	mov	r0, r3
 8000d1a:	f000 f813 	bl	8000d44 <Bootloader_Send_Data_To_Host>

}
 8000d1e:	bf00      	nop
 8000d20:	3710      	adds	r7, #16
 8000d22:	46bd      	mov	sp, r7
 8000d24:	bd80      	pop	{r7, pc}

08000d26 <Bootloader_Send_NOT_ACK>:
static void Bootloader_Send_NOT_ACK(){
 8000d26:	b580      	push	{r7, lr}
 8000d28:	b082      	sub	sp, #8
 8000d2a:	af00      	add	r7, sp, #0
	u8 NACK_VALUE = CBL_SEND_NACK;
 8000d2c:	2300      	movs	r3, #0
 8000d2e:	71fb      	strb	r3, [r7, #7]

	Bootloader_Send_Data_To_Host(&NACK_VALUE,1);
 8000d30:	1dfb      	adds	r3, r7, #7
 8000d32:	2101      	movs	r1, #1
 8000d34:	4618      	mov	r0, r3
 8000d36:	f000 f805 	bl	8000d44 <Bootloader_Send_Data_To_Host>
}
 8000d3a:	bf00      	nop
 8000d3c:	3708      	adds	r7, #8
 8000d3e:	46bd      	mov	sp, r7
 8000d40:	bd80      	pop	{r7, pc}
	...

08000d44 <Bootloader_Send_Data_To_Host>:


static void Bootloader_Send_Data_To_Host(u8* Host_Buffer, u32 Host_Buffer_Len){
 8000d44:	b580      	push	{r7, lr}
 8000d46:	b082      	sub	sp, #8
 8000d48:	af00      	add	r7, sp, #0
 8000d4a:	6078      	str	r0, [r7, #4]
 8000d4c:	6039      	str	r1, [r7, #0]

	UART_voidTransmit(BL_HOST_COMMUNICATION_UART, Host_Buffer, Host_Buffer_Len, UART_MAX_DELAY);
 8000d4e:	683b      	ldr	r3, [r7, #0]
 8000d50:	b29a      	uxth	r2, r3
 8000d52:	4b04      	ldr	r3, [pc, #16]	@ (8000d64 <Bootloader_Send_Data_To_Host+0x20>)
 8000d54:	6879      	ldr	r1, [r7, #4]
 8000d56:	4804      	ldr	r0, [pc, #16]	@ (8000d68 <Bootloader_Send_Data_To_Host+0x24>)
 8000d58:	f000 ff80 	bl	8001c5c <UART_voidTransmit>

}
 8000d5c:	bf00      	nop
 8000d5e:	3708      	adds	r7, #8
 8000d60:	46bd      	mov	sp, r7
 8000d62:	bd80      	pop	{r7, pc}
 8000d64:	001b7740 	.word	0x001b7740
 8000d68:	20000004 	.word	0x20000004

08000d6c <Host_Address_Verification>:


static u8 Host_Address_Verification(u32 HOST_Address){
 8000d6c:	b480      	push	{r7}
 8000d6e:	b085      	sub	sp, #20
 8000d70:	af00      	add	r7, sp, #0
 8000d72:	6078      	str	r0, [r7, #4]

	u8 Address_Verification = Address_Verification_FAILED;
 8000d74:	2304      	movs	r3, #4
 8000d76:	73fb      	strb	r3, [r7, #15]

	if(HOST_Address >= FLASH_BASE && HOST_Address <= FLASH_END){
 8000d78:	687b      	ldr	r3, [r7, #4]
 8000d7a:	f1b3 6f00 	cmp.w	r3, #134217728	@ 0x8000000
 8000d7e:	d306      	bcc.n	8000d8e <Host_Address_Verification+0x22>
 8000d80:	687b      	ldr	r3, [r7, #4]
 8000d82:	4a07      	ldr	r2, [pc, #28]	@ (8000da0 <Host_Address_Verification+0x34>)
 8000d84:	4293      	cmp	r3, r2
 8000d86:	d802      	bhi.n	8000d8e <Host_Address_Verification+0x22>
		Address_Verification = Address_Verification_SUCCESS;
 8000d88:	2301      	movs	r3, #1
 8000d8a:	73fb      	strb	r3, [r7, #15]
 8000d8c:	e001      	b.n	8000d92 <Host_Address_Verification+0x26>
	}else{
		Address_Verification = Address_Verification_FAILED;
 8000d8e:	2304      	movs	r3, #4
 8000d90:	73fb      	strb	r3, [r7, #15]
	}

	return Address_Verification;
 8000d92:	7bfb      	ldrb	r3, [r7, #15]
}
 8000d94:	4618      	mov	r0, r3
 8000d96:	3714      	adds	r7, #20
 8000d98:	46bd      	mov	sp, r7
 8000d9a:	f85d 7b04 	ldr.w	r7, [sp], #4
 8000d9e:	4770      	bx	lr
 8000da0:	08080200 	.word	0x08080200

08000da4 <BL_UART_Fetch_Host_Command>:


/**********************************************************************************************************************
 *  GLOBAL FUNCTIONS
 *********************************************************************************************************************/
void BL_UART_Fetch_Host_Command(void){
 8000da4:	b580      	push	{r7, lr}
 8000da6:	af00      	add	r7, sp, #0
	memset(BL_HOST_RX_BUFFER,0,sizeof(BL_HOST_RX_BUFFER));
 8000da8:	22c8      	movs	r2, #200	@ 0xc8
 8000daa:	2100      	movs	r1, #0
 8000dac:	481f      	ldr	r0, [pc, #124]	@ (8000e2c <BL_UART_Fetch_Host_Command+0x88>)
 8000dae:	f001 f8ba 	bl	8001f26 <memset>
	UART_ReceiveByte(BL_HOST_COMMUNICATION_UART, &BL_HOST_RX_BUFFER[0], UART_MAX_DELAY);
 8000db2:	4a1f      	ldr	r2, [pc, #124]	@ (8000e30 <BL_UART_Fetch_Host_Command+0x8c>)
 8000db4:	491d      	ldr	r1, [pc, #116]	@ (8000e2c <BL_UART_Fetch_Host_Command+0x88>)
 8000db6:	481f      	ldr	r0, [pc, #124]	@ (8000e34 <BL_UART_Fetch_Host_Command+0x90>)
 8000db8:	f000 ff84 	bl	8001cc4 <UART_ReceiveByte>
	UART_voidReceive(BL_HOST_RX_BUFFER_LENGTH, &BL_HOST_RX_BUFFER[1], BL_HOST_RX_BUFFER[0], UART_MAX_DELAY);
 8000dbc:	4b1b      	ldr	r3, [pc, #108]	@ (8000e2c <BL_UART_Fetch_Host_Command+0x88>)
 8000dbe:	781b      	ldrb	r3, [r3, #0]
 8000dc0:	461a      	mov	r2, r3
 8000dc2:	4b1b      	ldr	r3, [pc, #108]	@ (8000e30 <BL_UART_Fetch_Host_Command+0x8c>)
 8000dc4:	491c      	ldr	r1, [pc, #112]	@ (8000e38 <BL_UART_Fetch_Host_Command+0x94>)
 8000dc6:	20c8      	movs	r0, #200	@ 0xc8
 8000dc8:	f000 ffb8 	bl	8001d3c <UART_voidReceive>
	switch(BL_HOST_RX_BUFFER[1])
 8000dcc:	4b17      	ldr	r3, [pc, #92]	@ (8000e2c <BL_UART_Fetch_Host_Command+0x88>)
 8000dce:	785b      	ldrb	r3, [r3, #1]
 8000dd0:	3b10      	subs	r3, #16
 8000dd2:	2b05      	cmp	r3, #5
 8000dd4:	d826      	bhi.n	8000e24 <BL_UART_Fetch_Host_Command+0x80>
 8000dd6:	a201      	add	r2, pc, #4	@ (adr r2, 8000ddc <BL_UART_Fetch_Host_Command+0x38>)
 8000dd8:	f852 f023 	ldr.w	pc, [r2, r3, lsl #2]
 8000ddc:	08000df5 	.word	0x08000df5
 8000de0:	08000dfd 	.word	0x08000dfd
 8000de4:	08000e05 	.word	0x08000e05
 8000de8:	08000e0d 	.word	0x08000e0d
 8000dec:	08000e15 	.word	0x08000e15
 8000df0:	08000e1d 	.word	0x08000e1d
	{
		case CBL_GET_VER_CMD:
			Bootloader_Get_Version(BL_HOST_RX_BUFFER);
 8000df4:	480d      	ldr	r0, [pc, #52]	@ (8000e2c <BL_UART_Fetch_Host_Command+0x88>)
 8000df6:	f7ff fddd 	bl	80009b4 <Bootloader_Get_Version>
			break;
 8000dfa:	e014      	b.n	8000e26 <BL_UART_Fetch_Host_Command+0x82>
		case CBL_GET_CID_CMD:
			Bootloader_Get_Chip_ID(BL_HOST_RX_BUFFER);
 8000dfc:	480b      	ldr	r0, [pc, #44]	@ (8000e2c <BL_UART_Fetch_Host_Command+0x88>)
 8000dfe:	f7ff fe09 	bl	8000a14 <Bootloader_Get_Chip_ID>
			break;
 8000e02:	e010      	b.n	8000e26 <BL_UART_Fetch_Host_Command+0x82>
		case CBL_GET_RDP_STATUS_CMD:
			Bootloader_Get_ReadProtection_Status(BL_HOST_RX_BUFFER);
 8000e04:	4809      	ldr	r0, [pc, #36]	@ (8000e2c <BL_UART_Fetch_Host_Command+0x88>)
 8000e06:	f7ff fe3d 	bl	8000a84 <Bootloader_Get_ReadProtection_Status>
			break;
 8000e0a:	e00c      	b.n	8000e26 <BL_UART_Fetch_Host_Command+0x82>
		case CBL_APPLICATION_ERASE_CMD:
			Bootloader_Application_Erase(BL_HOST_RX_BUFFER);
 8000e0c:	4807      	ldr	r0, [pc, #28]	@ (8000e2c <BL_UART_Fetch_Host_Command+0x88>)
 8000e0e:	f7ff fe6b 	bl	8000ae8 <Bootloader_Application_Erase>
			break;
 8000e12:	e008      	b.n	8000e26 <BL_UART_Fetch_Host_Command+0x82>
		case CBL_MEM_WRITE_CMD:
			Bootloader_Upload_Application(BL_HOST_RX_BUFFER);
 8000e14:	4805      	ldr	r0, [pc, #20]	@ (8000e2c <BL_UART_Fetch_Host_Command+0x88>)
 8000e16:	f7ff fe9b 	bl	8000b50 <Bootloader_Upload_Application>
			break;
 8000e1a:	e004      	b.n	8000e26 <BL_UART_Fetch_Host_Command+0x82>
		case CBL_GO_TO_MAIN_APP_CMD:
			Bootloader_Jump_To_Application(BL_HOST_RX_BUFFER);
 8000e1c:	4803      	ldr	r0, [pc, #12]	@ (8000e2c <BL_UART_Fetch_Host_Command+0x88>)
 8000e1e:	f7ff fee7 	bl	8000bf0 <Bootloader_Jump_To_Application>
			break;
 8000e22:	e000      	b.n	8000e26 <BL_UART_Fetch_Host_Command+0x82>
		default:
			break;
 8000e24:	bf00      	nop
	}

}
 8000e26:	bf00      	nop
 8000e28:	bd80      	pop	{r7, pc}
 8000e2a:	bf00      	nop
 8000e2c:	20000044 	.word	0x20000044
 8000e30:	001b7740 	.word	0x001b7740
 8000e34:	20000004 	.word	0x20000004
 8000e38:	20000045 	.word	0x20000045

08000e3c <main>:

#include "MCAL/FPEC/FPEC_interface.h"

u8 data =255;
int main(void)
{
 8000e3c:	b580      	push	{r7, lr}
 8000e3e:	af00      	add	r7, sp, #0

	UART_voidInit(&UART1_Cfg);
 8000e40:	4805      	ldr	r0, [pc, #20]	@ (8000e58 <main+0x1c>)
 8000e42:	f000 fe93 	bl	8001b6c <UART_voidInit>
	FPEC_Write(0x08004000, &data , 1);
 8000e46:	2201      	movs	r2, #1
 8000e48:	4904      	ldr	r1, [pc, #16]	@ (8000e5c <main+0x20>)
 8000e4a:	4805      	ldr	r0, [pc, #20]	@ (8000e60 <main+0x24>)
 8000e4c:	f000 f876 	bl	8000f3c <FPEC_Write>
	for(;;){
		BL_UART_Fetch_Host_Command();
 8000e50:	f7ff ffa8 	bl	8000da4 <BL_UART_Fetch_Host_Command>
 8000e54:	e7fc      	b.n	8000e50 <main+0x14>
 8000e56:	bf00      	nop
 8000e58:	20000004 	.word	0x20000004
 8000e5c:	20000000 	.word	0x20000000
 8000e60:	08004000 	.word	0x08004000

08000e64 <CRC_RESET_DR>:

	RCC_voidEnablePeripheralClock(RCC_AHB, RCC_AHB_CRCEN);

}

void CRC_RESET_DR(void){
 8000e64:	b480      	push	{r7}
 8000e66:	af00      	add	r7, sp, #0

	SET_BIT(CRC->CRC_CR, CRC_RESET_BIT_POS);
 8000e68:	4b05      	ldr	r3, [pc, #20]	@ (8000e80 <CRC_RESET_DR+0x1c>)
 8000e6a:	689b      	ldr	r3, [r3, #8]
 8000e6c:	4a04      	ldr	r2, [pc, #16]	@ (8000e80 <CRC_RESET_DR+0x1c>)
 8000e6e:	f043 0301 	orr.w	r3, r3, #1
 8000e72:	6093      	str	r3, [r2, #8]

}
 8000e74:	bf00      	nop
 8000e76:	46bd      	mov	sp, r7
 8000e78:	f85d 7b04 	ldr.w	r7, [sp], #4
 8000e7c:	4770      	bx	lr
 8000e7e:	bf00      	nop
 8000e80:	40023000 	.word	0x40023000

08000e84 <CRC_Accumlate>:

u32 CRC_Accumlate(u32 Arr_Data[], u32 Copy_u32ArrSize){
 8000e84:	b480      	push	{r7}
 8000e86:	b085      	sub	sp, #20
 8000e88:	af00      	add	r7, sp, #0
 8000e8a:	6078      	str	r0, [r7, #4]
 8000e8c:	6039      	str	r1, [r7, #0]

	u32 temp = 0;
 8000e8e:	2300      	movs	r3, #0
 8000e90:	60bb      	str	r3, [r7, #8]
	u32 index = 0;
 8000e92:	2300      	movs	r3, #0
 8000e94:	60fb      	str	r3, [r7, #12]
	for(index=0;index<Copy_u32ArrSize;index++){
 8000e96:	2300      	movs	r3, #0
 8000e98:	60fb      	str	r3, [r7, #12]
 8000e9a:	e009      	b.n	8000eb0 <CRC_Accumlate+0x2c>

		CRC->CRC_DR = Arr_Data[index];
 8000e9c:	68fb      	ldr	r3, [r7, #12]
 8000e9e:	009b      	lsls	r3, r3, #2
 8000ea0:	687a      	ldr	r2, [r7, #4]
 8000ea2:	4413      	add	r3, r2
 8000ea4:	4a09      	ldr	r2, [pc, #36]	@ (8000ecc <CRC_Accumlate+0x48>)
 8000ea6:	681b      	ldr	r3, [r3, #0]
 8000ea8:	6013      	str	r3, [r2, #0]
	for(index=0;index<Copy_u32ArrSize;index++){
 8000eaa:	68fb      	ldr	r3, [r7, #12]
 8000eac:	3301      	adds	r3, #1
 8000eae:	60fb      	str	r3, [r7, #12]
 8000eb0:	68fa      	ldr	r2, [r7, #12]
 8000eb2:	683b      	ldr	r3, [r7, #0]
 8000eb4:	429a      	cmp	r2, r3
 8000eb6:	d3f1      	bcc.n	8000e9c <CRC_Accumlate+0x18>

	}
	temp = CRC->CRC_DR;
 8000eb8:	4b04      	ldr	r3, [pc, #16]	@ (8000ecc <CRC_Accumlate+0x48>)
 8000eba:	681b      	ldr	r3, [r3, #0]
 8000ebc:	60bb      	str	r3, [r7, #8]
	return temp;
 8000ebe:	68bb      	ldr	r3, [r7, #8]
}
 8000ec0:	4618      	mov	r0, r3
 8000ec2:	3714      	adds	r7, #20
 8000ec4:	46bd      	mov	sp, r7
 8000ec6:	f85d 7b04 	ldr.w	r7, [sp], #4
 8000eca:	4770      	bx	lr
 8000ecc:	40023000 	.word	0x40023000

08000ed0 <FLASH_UNLOCK>:

/**********************************************************************************************************************
 *  LOCAL FUNCTIONS
 *********************************************************************************************************************/

static void FLASH_UNLOCK(void){
 8000ed0:	b480      	push	{r7}
 8000ed2:	af00      	add	r7, sp, #0

	FPEC -> FLASH_KEYR=FLASH_KEY1;
 8000ed4:	4b05      	ldr	r3, [pc, #20]	@ (8000eec <FLASH_UNLOCK+0x1c>)
 8000ed6:	4a06      	ldr	r2, [pc, #24]	@ (8000ef0 <FLASH_UNLOCK+0x20>)
 8000ed8:	605a      	str	r2, [r3, #4]
	FPEC -> FLASH_KEYR=FLASH_KEY2;
 8000eda:	4b04      	ldr	r3, [pc, #16]	@ (8000eec <FLASH_UNLOCK+0x1c>)
 8000edc:	4a05      	ldr	r2, [pc, #20]	@ (8000ef4 <FLASH_UNLOCK+0x24>)
 8000ede:	605a      	str	r2, [r3, #4]

}
 8000ee0:	bf00      	nop
 8000ee2:	46bd      	mov	sp, r7
 8000ee4:	f85d 7b04 	ldr.w	r7, [sp], #4
 8000ee8:	4770      	bx	lr
 8000eea:	bf00      	nop
 8000eec:	40023c00 	.word	0x40023c00
 8000ef0:	45670123 	.word	0x45670123
 8000ef4:	cdef89ab 	.word	0xcdef89ab

08000ef8 <FLASH_LOCK>:
static void FLASH_LOCK(void){
 8000ef8:	b480      	push	{r7}
 8000efa:	af00      	add	r7, sp, #0

	SET_BIT(FPEC -> FLASH_CR, FLASH_LOCK_BIT_POS);
 8000efc:	4b05      	ldr	r3, [pc, #20]	@ (8000f14 <FLASH_LOCK+0x1c>)
 8000efe:	691b      	ldr	r3, [r3, #16]
 8000f00:	4a04      	ldr	r2, [pc, #16]	@ (8000f14 <FLASH_LOCK+0x1c>)
 8000f02:	f043 4300 	orr.w	r3, r3, #2147483648	@ 0x80000000
 8000f06:	6113      	str	r3, [r2, #16]

}
 8000f08:	bf00      	nop
 8000f0a:	46bd      	mov	sp, r7
 8000f0c:	f85d 7b04 	ldr.w	r7, [sp], #4
 8000f10:	4770      	bx	lr
 8000f12:	bf00      	nop
 8000f14:	40023c00 	.word	0x40023c00

08000f18 <WAIT_FOR_BSY>:
static void WAIT_FOR_BSY(void){
 8000f18:	b480      	push	{r7}
 8000f1a:	af00      	add	r7, sp, #0

	while(GET_BIT(FPEC->FLASH_SR, FLASH_BSY_FLAG_BIT_POS)==1);
 8000f1c:	bf00      	nop
 8000f1e:	4b06      	ldr	r3, [pc, #24]	@ (8000f38 <WAIT_FOR_BSY+0x20>)
 8000f20:	68db      	ldr	r3, [r3, #12]
 8000f22:	f403 3380 	and.w	r3, r3, #65536	@ 0x10000
 8000f26:	f5b3 3f80 	cmp.w	r3, #65536	@ 0x10000
 8000f2a:	d0f8      	beq.n	8000f1e <WAIT_FOR_BSY+0x6>

}
 8000f2c:	bf00      	nop
 8000f2e:	bf00      	nop
 8000f30:	46bd      	mov	sp, r7
 8000f32:	f85d 7b04 	ldr.w	r7, [sp], #4
 8000f36:	4770      	bx	lr
 8000f38:	40023c00 	.word	0x40023c00

08000f3c <FPEC_Write>:

/**********************************************************************************************************************
 *  GLOBAL FUNCTIONS
 *********************************************************************************************************************/

void FPEC_Write(u32 Copy_u32Address, u8* Copy_u32Data, u32 Copy_u32DataLength ){
 8000f3c:	b580      	push	{r7, lr}
 8000f3e:	b086      	sub	sp, #24
 8000f40:	af00      	add	r7, sp, #0
 8000f42:	60f8      	str	r0, [r7, #12]
 8000f44:	60b9      	str	r1, [r7, #8]
 8000f46:	607a      	str	r2, [r7, #4]

	u32 Local_Counter = 0;
 8000f48:	2300      	movs	r3, #0
 8000f4a:	617b      	str	r3, [r7, #20]

	FLASH_UNLOCK();
 8000f4c:	f7ff ffc0 	bl	8000ed0 <FLASH_UNLOCK>

	for(Local_Counter = 0;Local_Counter < Copy_u32DataLength;Local_Counter++){
 8000f50:	2300      	movs	r3, #0
 8000f52:	617b      	str	r3, [r7, #20]
 8000f54:	e01b      	b.n	8000f8e <FPEC_Write+0x52>

		WAIT_FOR_BSY();
 8000f56:	f7ff ffdf 	bl	8000f18 <WAIT_FOR_BSY>
		SET_BIT( FPEC-> FLASH_CR, FLASH_PROGRAMMING_ACTIVE_BIT_POS);
 8000f5a:	4b12      	ldr	r3, [pc, #72]	@ (8000fa4 <FPEC_Write+0x68>)
 8000f5c:	691b      	ldr	r3, [r3, #16]
 8000f5e:	4a11      	ldr	r2, [pc, #68]	@ (8000fa4 <FPEC_Write+0x68>)
 8000f60:	f043 0301 	orr.w	r3, r3, #1
 8000f64:	6113      	str	r3, [r2, #16]

		*((volatile u8*)Copy_u32Address) = Copy_u32Data[Local_Counter];
 8000f66:	68ba      	ldr	r2, [r7, #8]
 8000f68:	697b      	ldr	r3, [r7, #20]
 8000f6a:	441a      	add	r2, r3
 8000f6c:	68fb      	ldr	r3, [r7, #12]
 8000f6e:	7812      	ldrb	r2, [r2, #0]
 8000f70:	701a      	strb	r2, [r3, #0]
		WAIT_FOR_BSY();
 8000f72:	f7ff ffd1 	bl	8000f18 <WAIT_FOR_BSY>
		CLR_BIT( FPEC-> FLASH_CR, FLASH_PROGRAMMING_ACTIVE_BIT_POS);
 8000f76:	4b0b      	ldr	r3, [pc, #44]	@ (8000fa4 <FPEC_Write+0x68>)
 8000f78:	691b      	ldr	r3, [r3, #16]
 8000f7a:	4a0a      	ldr	r2, [pc, #40]	@ (8000fa4 <FPEC_Write+0x68>)
 8000f7c:	f023 0301 	bic.w	r3, r3, #1
 8000f80:	6113      	str	r3, [r2, #16]
		Copy_u32Address++;
 8000f82:	68fb      	ldr	r3, [r7, #12]
 8000f84:	3301      	adds	r3, #1
 8000f86:	60fb      	str	r3, [r7, #12]
	for(Local_Counter = 0;Local_Counter < Copy_u32DataLength;Local_Counter++){
 8000f88:	697b      	ldr	r3, [r7, #20]
 8000f8a:	3301      	adds	r3, #1
 8000f8c:	617b      	str	r3, [r7, #20]
 8000f8e:	697a      	ldr	r2, [r7, #20]
 8000f90:	687b      	ldr	r3, [r7, #4]
 8000f92:	429a      	cmp	r2, r3
 8000f94:	d3df      	bcc.n	8000f56 <FPEC_Write+0x1a>

	}

	FLASH_LOCK();
 8000f96:	f7ff ffaf 	bl	8000ef8 <FLASH_LOCK>


}
 8000f9a:	bf00      	nop
 8000f9c:	3718      	adds	r7, #24
 8000f9e:	46bd      	mov	sp, r7
 8000fa0:	bd80      	pop	{r7, pc}
 8000fa2:	bf00      	nop
 8000fa4:	40023c00 	.word	0x40023c00

08000fa8 <FPEC_EraseSectors>:

void FPEC_EraseSectors(u8 Copy_u8SectorNumber, u8 Copy_u8NbOfSectors){
 8000fa8:	b580      	push	{r7, lr}
 8000faa:	b084      	sub	sp, #16
 8000fac:	af00      	add	r7, sp, #0
 8000fae:	4603      	mov	r3, r0
 8000fb0:	460a      	mov	r2, r1
 8000fb2:	71fb      	strb	r3, [r7, #7]
 8000fb4:	4613      	mov	r3, r2
 8000fb6:	71bb      	strb	r3, [r7, #6]

	u32 Local_Counter = 0;
 8000fb8:	2300      	movs	r3, #0
 8000fba:	60fb      	str	r3, [r7, #12]

	FLASH_UNLOCK();
 8000fbc:	f7ff ff88 	bl	8000ed0 <FLASH_UNLOCK>
	for(Local_Counter = 0;Local_Counter < Copy_u8NbOfSectors;Local_Counter++){
 8000fc0:	2300      	movs	r3, #0
 8000fc2:	60fb      	str	r3, [r7, #12]
 8000fc4:	e024      	b.n	8001010 <FPEC_EraseSectors+0x68>

		WAIT_FOR_BSY();
 8000fc6:	f7ff ffa7 	bl	8000f18 <WAIT_FOR_BSY>

		SET_BIT( FPEC-> FLASH_CR, FLASH_SER_BIT_POS);
 8000fca:	4b16      	ldr	r3, [pc, #88]	@ (8001024 <FPEC_EraseSectors+0x7c>)
 8000fcc:	691b      	ldr	r3, [r3, #16]
 8000fce:	4a15      	ldr	r2, [pc, #84]	@ (8001024 <FPEC_EraseSectors+0x7c>)
 8000fd0:	f043 0302 	orr.w	r3, r3, #2
 8000fd4:	6113      	str	r3, [r2, #16]
		u32 CLR_Mask = (u32)(0xf<<3);
		FPEC-> FLASH_CR &= ~CLR_Mask;
		u32 Sector =((u32)Copy_u8SectorNumber )<< 3;
		FPEC-> FLASH_CR |= Sector;
		*/
		MODIFY_REG(FPEC-> FLASH_CR, 0xf<<3,Copy_u8SectorNumber<<3);
 8000fd6:	4b13      	ldr	r3, [pc, #76]	@ (8001024 <FPEC_EraseSectors+0x7c>)
 8000fd8:	691b      	ldr	r3, [r3, #16]
 8000fda:	f023 0278 	bic.w	r2, r3, #120	@ 0x78
 8000fde:	79fb      	ldrb	r3, [r7, #7]
 8000fe0:	00db      	lsls	r3, r3, #3
 8000fe2:	4910      	ldr	r1, [pc, #64]	@ (8001024 <FPEC_EraseSectors+0x7c>)
 8000fe4:	4313      	orrs	r3, r2
 8000fe6:	610b      	str	r3, [r1, #16]

		SET_BIT( FPEC-> FLASH_CR, FLASH_STRT_BIT_POS);
 8000fe8:	4b0e      	ldr	r3, [pc, #56]	@ (8001024 <FPEC_EraseSectors+0x7c>)
 8000fea:	691b      	ldr	r3, [r3, #16]
 8000fec:	4a0d      	ldr	r2, [pc, #52]	@ (8001024 <FPEC_EraseSectors+0x7c>)
 8000fee:	f443 3380 	orr.w	r3, r3, #65536	@ 0x10000
 8000ff2:	6113      	str	r3, [r2, #16]

		WAIT_FOR_BSY();
 8000ff4:	f7ff ff90 	bl	8000f18 <WAIT_FOR_BSY>
		CLR_BIT( FPEC-> FLASH_CR, FLASH_SER_BIT_POS);
 8000ff8:	4b0a      	ldr	r3, [pc, #40]	@ (8001024 <FPEC_EraseSectors+0x7c>)
 8000ffa:	691b      	ldr	r3, [r3, #16]
 8000ffc:	4a09      	ldr	r2, [pc, #36]	@ (8001024 <FPEC_EraseSectors+0x7c>)
 8000ffe:	f023 0302 	bic.w	r3, r3, #2
 8001002:	6113      	str	r3, [r2, #16]
		Copy_u8SectorNumber++;
 8001004:	79fb      	ldrb	r3, [r7, #7]
 8001006:	3301      	adds	r3, #1
 8001008:	71fb      	strb	r3, [r7, #7]
	for(Local_Counter = 0;Local_Counter < Copy_u8NbOfSectors;Local_Counter++){
 800100a:	68fb      	ldr	r3, [r7, #12]
 800100c:	3301      	adds	r3, #1
 800100e:	60fb      	str	r3, [r7, #12]
 8001010:	79bb      	ldrb	r3, [r7, #6]
 8001012:	68fa      	ldr	r2, [r7, #12]
 8001014:	429a      	cmp	r2, r3
 8001016:	d3d6      	bcc.n	8000fc6 <FPEC_EraseSectors+0x1e>

	}
	FLASH_LOCK();
 8001018:	f7ff ff6e 	bl	8000ef8 <FLASH_LOCK>
}
 800101c:	bf00      	nop
 800101e:	3710      	adds	r7, #16
 8001020:	46bd      	mov	sp, r7
 8001022:	bd80      	pop	{r7, pc}
 8001024:	40023c00 	.word	0x40023c00

08001028 <FPEC_GetReadProtectionLevel>:

u8 FPEC_GetReadProtectionLevel(void){
 8001028:	b480      	push	{r7}
 800102a:	b083      	sub	sp, #12
 800102c:	af00      	add	r7, sp, #0
	// RDP[7:0] -> FLASH_OPTCR[15:8]
	u8 ProtectionLevel = (u8)(0xff & (FPEC->FLASH_OPTCR >>8));
 800102e:	4b05      	ldr	r3, [pc, #20]	@ (8001044 <FPEC_GetReadProtectionLevel+0x1c>)
 8001030:	695b      	ldr	r3, [r3, #20]
 8001032:	0a1b      	lsrs	r3, r3, #8
 8001034:	71fb      	strb	r3, [r7, #7]

	return ProtectionLevel;
 8001036:	79fb      	ldrb	r3, [r7, #7]
}
 8001038:	4618      	mov	r0, r3
 800103a:	370c      	adds	r7, #12
 800103c:	46bd      	mov	sp, r7
 800103e:	f85d 7b04 	ldr.w	r7, [sp], #4
 8001042:	4770      	bx	lr
 8001044:	40023c00 	.word	0x40023c00

08001048 <GPIO_voidSetPinMode>:
#include"GPIO_config.h"
#include"GPIO_interface.h"
#include"GPIO_private.h"

void GPIO_voidSetPinMode(port_index_t Copy_PortIndex, pin_index_t Copy_PinIndex,
                         gpio_pin_mode_t Copy_GPIOPinMode) {
 8001048:	b480      	push	{r7}
 800104a:	b083      	sub	sp, #12
 800104c:	af00      	add	r7, sp, #0
 800104e:	4603      	mov	r3, r0
 8001050:	71fb      	strb	r3, [r7, #7]
 8001052:	460b      	mov	r3, r1
 8001054:	71bb      	strb	r3, [r7, #6]
 8001056:	4613      	mov	r3, r2
 8001058:	717b      	strb	r3, [r7, #5]
  switch (Copy_PortIndex) {
 800105a:	79fb      	ldrb	r3, [r7, #7]
 800105c:	2b05      	cmp	r3, #5
 800105e:	f200 8081 	bhi.w	8001164 <GPIO_voidSetPinMode+0x11c>
 8001062:	a201      	add	r2, pc, #4	@ (adr r2, 8001068 <GPIO_voidSetPinMode+0x20>)
 8001064:	f852 f023 	ldr.w	pc, [r2, r3, lsl #2]
 8001068:	08001081 	.word	0x08001081
 800106c:	080010a7 	.word	0x080010a7
 8001070:	080010cd 	.word	0x080010cd
 8001074:	080010f3 	.word	0x080010f3
 8001078:	08001119 	.word	0x08001119
 800107c:	0800113f 	.word	0x0800113f
    case GPIO_PORTA:
      MODIFY_REG(GPIOA_MODER,
 8001080:	4b3c      	ldr	r3, [pc, #240]	@ (8001174 <GPIO_voidSetPinMode+0x12c>)
 8001082:	681b      	ldr	r3, [r3, #0]
 8001084:	79ba      	ldrb	r2, [r7, #6]
 8001086:	0052      	lsls	r2, r2, #1
 8001088:	2103      	movs	r1, #3
 800108a:	fa01 f202 	lsl.w	r2, r1, r2
 800108e:	43d2      	mvns	r2, r2
 8001090:	4013      	ands	r3, r2
 8001092:	7979      	ldrb	r1, [r7, #5]
 8001094:	79ba      	ldrb	r2, [r7, #6]
 8001096:	0052      	lsls	r2, r2, #1
 8001098:	fa01 f202 	lsl.w	r2, r1, r2
 800109c:	4611      	mov	r1, r2
 800109e:	4a35      	ldr	r2, [pc, #212]	@ (8001174 <GPIO_voidSetPinMode+0x12c>)
 80010a0:	430b      	orrs	r3, r1
 80010a2:	6013      	str	r3, [r2, #0]
                 GPIO_MODER_CLEAR_MASK << GPIO_MODER_PIN_BITS * Copy_PinIndex,
                 Copy_GPIOPinMode << GPIO_MODER_PIN_BITS * Copy_PinIndex);
      break;
 80010a4:	e05f      	b.n	8001166 <GPIO_voidSetPinMode+0x11e>
    case GPIO_PORTB:
      MODIFY_REG(GPIOB_MODER,
 80010a6:	4b34      	ldr	r3, [pc, #208]	@ (8001178 <GPIO_voidSetPinMode+0x130>)
 80010a8:	681b      	ldr	r3, [r3, #0]
 80010aa:	79ba      	ldrb	r2, [r7, #6]
 80010ac:	0052      	lsls	r2, r2, #1
 80010ae:	2103      	movs	r1, #3
 80010b0:	fa01 f202 	lsl.w	r2, r1, r2
 80010b4:	43d2      	mvns	r2, r2
 80010b6:	4013      	ands	r3, r2
 80010b8:	7979      	ldrb	r1, [r7, #5]
 80010ba:	79ba      	ldrb	r2, [r7, #6]
 80010bc:	0052      	lsls	r2, r2, #1
 80010be:	fa01 f202 	lsl.w	r2, r1, r2
 80010c2:	4611      	mov	r1, r2
 80010c4:	4a2c      	ldr	r2, [pc, #176]	@ (8001178 <GPIO_voidSetPinMode+0x130>)
 80010c6:	430b      	orrs	r3, r1
 80010c8:	6013      	str	r3, [r2, #0]
                 GPIO_MODER_CLEAR_MASK << GPIO_MODER_PIN_BITS * Copy_PinIndex,
                 Copy_GPIOPinMode << GPIO_MODER_PIN_BITS * Copy_PinIndex);
      break;
 80010ca:	e04c      	b.n	8001166 <GPIO_voidSetPinMode+0x11e>
    case GPIO_PORTC:
      MODIFY_REG(GPIOC_MODER,
 80010cc:	4b2b      	ldr	r3, [pc, #172]	@ (800117c <GPIO_voidSetPinMode+0x134>)
 80010ce:	681b      	ldr	r3, [r3, #0]
 80010d0:	79ba      	ldrb	r2, [r7, #6]
 80010d2:	0052      	lsls	r2, r2, #1
 80010d4:	2103      	movs	r1, #3
 80010d6:	fa01 f202 	lsl.w	r2, r1, r2
 80010da:	43d2      	mvns	r2, r2
 80010dc:	4013      	ands	r3, r2
 80010de:	7979      	ldrb	r1, [r7, #5]
 80010e0:	79ba      	ldrb	r2, [r7, #6]
 80010e2:	0052      	lsls	r2, r2, #1
 80010e4:	fa01 f202 	lsl.w	r2, r1, r2
 80010e8:	4611      	mov	r1, r2
 80010ea:	4a24      	ldr	r2, [pc, #144]	@ (800117c <GPIO_voidSetPinMode+0x134>)
 80010ec:	430b      	orrs	r3, r1
 80010ee:	6013      	str	r3, [r2, #0]
                 GPIO_MODER_CLEAR_MASK << GPIO_MODER_PIN_BITS * Copy_PinIndex,
                 Copy_GPIOPinMode << GPIO_MODER_PIN_BITS * Copy_PinIndex);
      break;
 80010f0:	e039      	b.n	8001166 <GPIO_voidSetPinMode+0x11e>
     case GPIO_PORTD:
      MODIFY_REG(GPIOD_MODER,
 80010f2:	4b23      	ldr	r3, [pc, #140]	@ (8001180 <GPIO_voidSetPinMode+0x138>)
 80010f4:	681b      	ldr	r3, [r3, #0]
 80010f6:	79ba      	ldrb	r2, [r7, #6]
 80010f8:	0052      	lsls	r2, r2, #1
 80010fa:	2103      	movs	r1, #3
 80010fc:	fa01 f202 	lsl.w	r2, r1, r2
 8001100:	43d2      	mvns	r2, r2
 8001102:	4013      	ands	r3, r2
 8001104:	7979      	ldrb	r1, [r7, #5]
 8001106:	79ba      	ldrb	r2, [r7, #6]
 8001108:	0052      	lsls	r2, r2, #1
 800110a:	fa01 f202 	lsl.w	r2, r1, r2
 800110e:	4611      	mov	r1, r2
 8001110:	4a1b      	ldr	r2, [pc, #108]	@ (8001180 <GPIO_voidSetPinMode+0x138>)
 8001112:	430b      	orrs	r3, r1
 8001114:	6013      	str	r3, [r2, #0]
                 GPIO_MODER_CLEAR_MASK << GPIO_MODER_PIN_BITS * Copy_PinIndex,
                 Copy_GPIOPinMode << GPIO_MODER_PIN_BITS * Copy_PinIndex);
      break;
 8001116:	e026      	b.n	8001166 <GPIO_voidSetPinMode+0x11e>
    case GPIO_PORTE:
      MODIFY_REG(GPIOE_MODER,
 8001118:	4b1a      	ldr	r3, [pc, #104]	@ (8001184 <GPIO_voidSetPinMode+0x13c>)
 800111a:	681b      	ldr	r3, [r3, #0]
 800111c:	79ba      	ldrb	r2, [r7, #6]
 800111e:	0052      	lsls	r2, r2, #1
 8001120:	2103      	movs	r1, #3
 8001122:	fa01 f202 	lsl.w	r2, r1, r2
 8001126:	43d2      	mvns	r2, r2
 8001128:	4013      	ands	r3, r2
 800112a:	7979      	ldrb	r1, [r7, #5]
 800112c:	79ba      	ldrb	r2, [r7, #6]
 800112e:	0052      	lsls	r2, r2, #1
 8001130:	fa01 f202 	lsl.w	r2, r1, r2
 8001134:	4611      	mov	r1, r2
 8001136:	4a13      	ldr	r2, [pc, #76]	@ (8001184 <GPIO_voidSetPinMode+0x13c>)
 8001138:	430b      	orrs	r3, r1
 800113a:	6013      	str	r3, [r2, #0]
                 GPIO_MODER_CLEAR_MASK << GPIO_MODER_PIN_BITS * Copy_PinIndex,
                 Copy_GPIOPinMode << GPIO_MODER_PIN_BITS * Copy_PinIndex);
      break;
 800113c:	e013      	b.n	8001166 <GPIO_voidSetPinMode+0x11e>
    case GPIO_PORTH:
      MODIFY_REG(GPIOH_MODER,
 800113e:	4b12      	ldr	r3, [pc, #72]	@ (8001188 <GPIO_voidSetPinMode+0x140>)
 8001140:	681b      	ldr	r3, [r3, #0]
 8001142:	79ba      	ldrb	r2, [r7, #6]
 8001144:	0052      	lsls	r2, r2, #1
 8001146:	2103      	movs	r1, #3
 8001148:	fa01 f202 	lsl.w	r2, r1, r2
 800114c:	43d2      	mvns	r2, r2
 800114e:	4013      	ands	r3, r2
 8001150:	7979      	ldrb	r1, [r7, #5]
 8001152:	79ba      	ldrb	r2, [r7, #6]
 8001154:	0052      	lsls	r2, r2, #1
 8001156:	fa01 f202 	lsl.w	r2, r1, r2
 800115a:	4611      	mov	r1, r2
 800115c:	4a0a      	ldr	r2, [pc, #40]	@ (8001188 <GPIO_voidSetPinMode+0x140>)
 800115e:	430b      	orrs	r3, r1
 8001160:	6013      	str	r3, [r2, #0]
                 GPIO_MODER_CLEAR_MASK << GPIO_MODER_PIN_BITS * Copy_PinIndex,
                 Copy_GPIOPinMode << GPIO_MODER_PIN_BITS * Copy_PinIndex);
      break;
 8001162:	e000      	b.n	8001166 <GPIO_voidSetPinMode+0x11e>
    default:
      break;
 8001164:	bf00      	nop
  }
}
 8001166:	bf00      	nop
 8001168:	370c      	adds	r7, #12
 800116a:	46bd      	mov	sp, r7
 800116c:	f85d 7b04 	ldr.w	r7, [sp], #4
 8001170:	4770      	bx	lr
 8001172:	bf00      	nop
 8001174:	40020000 	.word	0x40020000
 8001178:	40020400 	.word	0x40020400
 800117c:	40020800 	.word	0x40020800
 8001180:	40020c00 	.word	0x40020c00
 8001184:	40021000 	.word	0x40021000
 8001188:	40021c00 	.word	0x40021c00

0800118c <GPIO_voidSetPinAlternateFunction>:
    default:
      break;
  }
}
void GPIO_voidSetPinAlternateFunction(port_index_t Copy_PortIndex, pin_index_t Copy_PinIndex, u8 Copy_u8AlternateFunction)
{
 800118c:	b480      	push	{r7}
 800118e:	b083      	sub	sp, #12
 8001190:	af00      	add	r7, sp, #0
 8001192:	4603      	mov	r3, r0
 8001194:	71fb      	strb	r3, [r7, #7]
 8001196:	460b      	mov	r3, r1
 8001198:	71bb      	strb	r3, [r7, #6]
 800119a:	4613      	mov	r3, r2
 800119c:	717b      	strb	r3, [r7, #5]
	switch (Copy_PortIndex) {
 800119e:	79fb      	ldrb	r3, [r7, #7]
 80011a0:	2b05      	cmp	r3, #5
 80011a2:	f200 8111 	bhi.w	80013c8 <GPIO_voidSetPinAlternateFunction+0x23c>
 80011a6:	a201      	add	r2, pc, #4	@ (adr r2, 80011ac <GPIO_voidSetPinAlternateFunction+0x20>)
 80011a8:	f852 f023 	ldr.w	pc, [r2, r3, lsl #2]
 80011ac:	080011c5 	.word	0x080011c5
 80011b0:	0800121b 	.word	0x0800121b
 80011b4:	08001271 	.word	0x08001271
 80011b8:	080012c7 	.word	0x080012c7
 80011bc:	0800131d 	.word	0x0800131d
 80011c0:	08001373 	.word	0x08001373
	    case GPIO_PORTA:
             if(Copy_PinIndex < 8)
 80011c4:	79bb      	ldrb	r3, [r7, #6]
 80011c6:	2b07      	cmp	r3, #7
 80011c8:	d812      	bhi.n	80011f0 <GPIO_voidSetPinAlternateFunction+0x64>
             {
            	 MODIFY_REG(GPIOA_AFRL, GPIO_AF_CLEAR_MASK << Copy_PinIndex * GPIO_AF_PIN_BITS,
 80011ca:	4b83      	ldr	r3, [pc, #524]	@ (80013d8 <GPIO_voidSetPinAlternateFunction+0x24c>)
 80011cc:	681b      	ldr	r3, [r3, #0]
 80011ce:	79ba      	ldrb	r2, [r7, #6]
 80011d0:	0092      	lsls	r2, r2, #2
 80011d2:	210f      	movs	r1, #15
 80011d4:	fa01 f202 	lsl.w	r2, r1, r2
 80011d8:	43d2      	mvns	r2, r2
 80011da:	4013      	ands	r3, r2
 80011dc:	7979      	ldrb	r1, [r7, #5]
 80011de:	79ba      	ldrb	r2, [r7, #6]
 80011e0:	0092      	lsls	r2, r2, #2
 80011e2:	fa01 f202 	lsl.w	r2, r1, r2
 80011e6:	4611      	mov	r1, r2
 80011e8:	4a7b      	ldr	r2, [pc, #492]	@ (80013d8 <GPIO_voidSetPinAlternateFunction+0x24c>)
 80011ea:	430b      	orrs	r3, r1
 80011ec:	6013      	str	r3, [r2, #0]
             else
             {
            	 MODIFY_REG(GPIOA_AFRH, GPIO_AF_CLEAR_MASK << (Copy_PinIndex-8) * GPIO_AF_PIN_BITS,
            			 Copy_u8AlternateFunction << (Copy_PinIndex-8) * GPIO_AF_PIN_BITS);
             }
	      break;
 80011ee:	e0ec      	b.n	80013ca <GPIO_voidSetPinAlternateFunction+0x23e>
            	 MODIFY_REG(GPIOA_AFRH, GPIO_AF_CLEAR_MASK << (Copy_PinIndex-8) * GPIO_AF_PIN_BITS,
 80011f0:	4b7a      	ldr	r3, [pc, #488]	@ (80013dc <GPIO_voidSetPinAlternateFunction+0x250>)
 80011f2:	681b      	ldr	r3, [r3, #0]
 80011f4:	79ba      	ldrb	r2, [r7, #6]
 80011f6:	3a08      	subs	r2, #8
 80011f8:	0092      	lsls	r2, r2, #2
 80011fa:	210f      	movs	r1, #15
 80011fc:	fa01 f202 	lsl.w	r2, r1, r2
 8001200:	43d2      	mvns	r2, r2
 8001202:	4013      	ands	r3, r2
 8001204:	7979      	ldrb	r1, [r7, #5]
 8001206:	79ba      	ldrb	r2, [r7, #6]
 8001208:	3a08      	subs	r2, #8
 800120a:	0092      	lsls	r2, r2, #2
 800120c:	fa01 f202 	lsl.w	r2, r1, r2
 8001210:	4611      	mov	r1, r2
 8001212:	4a72      	ldr	r2, [pc, #456]	@ (80013dc <GPIO_voidSetPinAlternateFunction+0x250>)
 8001214:	430b      	orrs	r3, r1
 8001216:	6013      	str	r3, [r2, #0]
	      break;
 8001218:	e0d7      	b.n	80013ca <GPIO_voidSetPinAlternateFunction+0x23e>
	    case GPIO_PORTB:
	    	if(Copy_PinIndex < 8)
 800121a:	79bb      	ldrb	r3, [r7, #6]
 800121c:	2b07      	cmp	r3, #7
 800121e:	d812      	bhi.n	8001246 <GPIO_voidSetPinAlternateFunction+0xba>
	    	{
	    		MODIFY_REG(GPIOB_AFRL, GPIO_AF_CLEAR_MASK << Copy_PinIndex * GPIO_AF_PIN_BITS,
 8001220:	4b6f      	ldr	r3, [pc, #444]	@ (80013e0 <GPIO_voidSetPinAlternateFunction+0x254>)
 8001222:	681b      	ldr	r3, [r3, #0]
 8001224:	79ba      	ldrb	r2, [r7, #6]
 8001226:	0092      	lsls	r2, r2, #2
 8001228:	210f      	movs	r1, #15
 800122a:	fa01 f202 	lsl.w	r2, r1, r2
 800122e:	43d2      	mvns	r2, r2
 8001230:	4013      	ands	r3, r2
 8001232:	7979      	ldrb	r1, [r7, #5]
 8001234:	79ba      	ldrb	r2, [r7, #6]
 8001236:	0092      	lsls	r2, r2, #2
 8001238:	fa01 f202 	lsl.w	r2, r1, r2
 800123c:	4611      	mov	r1, r2
 800123e:	4a68      	ldr	r2, [pc, #416]	@ (80013e0 <GPIO_voidSetPinAlternateFunction+0x254>)
 8001240:	430b      	orrs	r3, r1
 8001242:	6013      	str	r3, [r2, #0]
	    	else
	    	{
	    		MODIFY_REG(GPIOB_AFRH, GPIO_AF_CLEAR_MASK << (Copy_PinIndex-8) * GPIO_AF_PIN_BITS,
	    				Copy_u8AlternateFunction << (Copy_PinIndex-8) * GPIO_AF_PIN_BITS);
	    	}
	      break;
 8001244:	e0c1      	b.n	80013ca <GPIO_voidSetPinAlternateFunction+0x23e>
	    		MODIFY_REG(GPIOB_AFRH, GPIO_AF_CLEAR_MASK << (Copy_PinIndex-8) * GPIO_AF_PIN_BITS,
 8001246:	4b67      	ldr	r3, [pc, #412]	@ (80013e4 <GPIO_voidSetPinAlternateFunction+0x258>)
 8001248:	681b      	ldr	r3, [r3, #0]
 800124a:	79ba      	ldrb	r2, [r7, #6]
 800124c:	3a08      	subs	r2, #8
 800124e:	0092      	lsls	r2, r2, #2
 8001250:	210f      	movs	r1, #15
 8001252:	fa01 f202 	lsl.w	r2, r1, r2
 8001256:	43d2      	mvns	r2, r2
 8001258:	4013      	ands	r3, r2
 800125a:	7979      	ldrb	r1, [r7, #5]
 800125c:	79ba      	ldrb	r2, [r7, #6]
 800125e:	3a08      	subs	r2, #8
 8001260:	0092      	lsls	r2, r2, #2
 8001262:	fa01 f202 	lsl.w	r2, r1, r2
 8001266:	4611      	mov	r1, r2
 8001268:	4a5e      	ldr	r2, [pc, #376]	@ (80013e4 <GPIO_voidSetPinAlternateFunction+0x258>)
 800126a:	430b      	orrs	r3, r1
 800126c:	6013      	str	r3, [r2, #0]
	      break;
 800126e:	e0ac      	b.n	80013ca <GPIO_voidSetPinAlternateFunction+0x23e>
	    case GPIO_PORTC:
	    	if(Copy_PinIndex < 8)
 8001270:	79bb      	ldrb	r3, [r7, #6]
 8001272:	2b07      	cmp	r3, #7
 8001274:	d812      	bhi.n	800129c <GPIO_voidSetPinAlternateFunction+0x110>
	    	{
	    		MODIFY_REG(GPIOC_AFRL, GPIO_AF_CLEAR_MASK << Copy_PinIndex * GPIO_AF_PIN_BITS,
 8001276:	4b5c      	ldr	r3, [pc, #368]	@ (80013e8 <GPIO_voidSetPinAlternateFunction+0x25c>)
 8001278:	681b      	ldr	r3, [r3, #0]
 800127a:	79ba      	ldrb	r2, [r7, #6]
 800127c:	0092      	lsls	r2, r2, #2
 800127e:	210f      	movs	r1, #15
 8001280:	fa01 f202 	lsl.w	r2, r1, r2
 8001284:	43d2      	mvns	r2, r2
 8001286:	4013      	ands	r3, r2
 8001288:	7979      	ldrb	r1, [r7, #5]
 800128a:	79ba      	ldrb	r2, [r7, #6]
 800128c:	0092      	lsls	r2, r2, #2
 800128e:	fa01 f202 	lsl.w	r2, r1, r2
 8001292:	4611      	mov	r1, r2
 8001294:	4a54      	ldr	r2, [pc, #336]	@ (80013e8 <GPIO_voidSetPinAlternateFunction+0x25c>)
 8001296:	430b      	orrs	r3, r1
 8001298:	6013      	str	r3, [r2, #0]
	    	else
	    	{
	    		MODIFY_REG(GPIOC_AFRH, GPIO_AF_CLEAR_MASK << (Copy_PinIndex-8) * GPIO_AF_PIN_BITS,
	    				Copy_u8AlternateFunction << (Copy_PinIndex-8) * GPIO_AF_PIN_BITS);
	    	}
	      break;
 800129a:	e096      	b.n	80013ca <GPIO_voidSetPinAlternateFunction+0x23e>
	    		MODIFY_REG(GPIOC_AFRH, GPIO_AF_CLEAR_MASK << (Copy_PinIndex-8) * GPIO_AF_PIN_BITS,
 800129c:	4b53      	ldr	r3, [pc, #332]	@ (80013ec <GPIO_voidSetPinAlternateFunction+0x260>)
 800129e:	681b      	ldr	r3, [r3, #0]
 80012a0:	79ba      	ldrb	r2, [r7, #6]
 80012a2:	3a08      	subs	r2, #8
 80012a4:	0092      	lsls	r2, r2, #2
 80012a6:	210f      	movs	r1, #15
 80012a8:	fa01 f202 	lsl.w	r2, r1, r2
 80012ac:	43d2      	mvns	r2, r2
 80012ae:	4013      	ands	r3, r2
 80012b0:	7979      	ldrb	r1, [r7, #5]
 80012b2:	79ba      	ldrb	r2, [r7, #6]
 80012b4:	3a08      	subs	r2, #8
 80012b6:	0092      	lsls	r2, r2, #2
 80012b8:	fa01 f202 	lsl.w	r2, r1, r2
 80012bc:	4611      	mov	r1, r2
 80012be:	4a4b      	ldr	r2, [pc, #300]	@ (80013ec <GPIO_voidSetPinAlternateFunction+0x260>)
 80012c0:	430b      	orrs	r3, r1
 80012c2:	6013      	str	r3, [r2, #0]
	      break;
 80012c4:	e081      	b.n	80013ca <GPIO_voidSetPinAlternateFunction+0x23e>
	    case GPIO_PORTD:
             if(Copy_PinIndex < 8)
 80012c6:	79bb      	ldrb	r3, [r7, #6]
 80012c8:	2b07      	cmp	r3, #7
 80012ca:	d812      	bhi.n	80012f2 <GPIO_voidSetPinAlternateFunction+0x166>
             {
            	 MODIFY_REG(GPIOD_AFRL, GPIO_AF_CLEAR_MASK << Copy_PinIndex * GPIO_AF_PIN_BITS,
 80012cc:	4b48      	ldr	r3, [pc, #288]	@ (80013f0 <GPIO_voidSetPinAlternateFunction+0x264>)
 80012ce:	681b      	ldr	r3, [r3, #0]
 80012d0:	79ba      	ldrb	r2, [r7, #6]
 80012d2:	0092      	lsls	r2, r2, #2
 80012d4:	210f      	movs	r1, #15
 80012d6:	fa01 f202 	lsl.w	r2, r1, r2
 80012da:	43d2      	mvns	r2, r2
 80012dc:	4013      	ands	r3, r2
 80012de:	7979      	ldrb	r1, [r7, #5]
 80012e0:	79ba      	ldrb	r2, [r7, #6]
 80012e2:	0092      	lsls	r2, r2, #2
 80012e4:	fa01 f202 	lsl.w	r2, r1, r2
 80012e8:	4611      	mov	r1, r2
 80012ea:	4a41      	ldr	r2, [pc, #260]	@ (80013f0 <GPIO_voidSetPinAlternateFunction+0x264>)
 80012ec:	430b      	orrs	r3, r1
 80012ee:	6013      	str	r3, [r2, #0]
             else
             {
            	 MODIFY_REG(GPIOD_AFRH, GPIO_AF_CLEAR_MASK << (Copy_PinIndex-8) * GPIO_AF_PIN_BITS,
            			 Copy_u8AlternateFunction << (Copy_PinIndex-8) * GPIO_AF_PIN_BITS);
             }
	      break;
 80012f0:	e06b      	b.n	80013ca <GPIO_voidSetPinAlternateFunction+0x23e>
            	 MODIFY_REG(GPIOD_AFRH, GPIO_AF_CLEAR_MASK << (Copy_PinIndex-8) * GPIO_AF_PIN_BITS,
 80012f2:	4b40      	ldr	r3, [pc, #256]	@ (80013f4 <GPIO_voidSetPinAlternateFunction+0x268>)
 80012f4:	681b      	ldr	r3, [r3, #0]
 80012f6:	79ba      	ldrb	r2, [r7, #6]
 80012f8:	3a08      	subs	r2, #8
 80012fa:	0092      	lsls	r2, r2, #2
 80012fc:	210f      	movs	r1, #15
 80012fe:	fa01 f202 	lsl.w	r2, r1, r2
 8001302:	43d2      	mvns	r2, r2
 8001304:	4013      	ands	r3, r2
 8001306:	7979      	ldrb	r1, [r7, #5]
 8001308:	79ba      	ldrb	r2, [r7, #6]
 800130a:	3a08      	subs	r2, #8
 800130c:	0092      	lsls	r2, r2, #2
 800130e:	fa01 f202 	lsl.w	r2, r1, r2
 8001312:	4611      	mov	r1, r2
 8001314:	4a37      	ldr	r2, [pc, #220]	@ (80013f4 <GPIO_voidSetPinAlternateFunction+0x268>)
 8001316:	430b      	orrs	r3, r1
 8001318:	6013      	str	r3, [r2, #0]
	      break;
 800131a:	e056      	b.n	80013ca <GPIO_voidSetPinAlternateFunction+0x23e>
	    case GPIO_PORTE:
	    	if(Copy_PinIndex < 8)
 800131c:	79bb      	ldrb	r3, [r7, #6]
 800131e:	2b07      	cmp	r3, #7
 8001320:	d812      	bhi.n	8001348 <GPIO_voidSetPinAlternateFunction+0x1bc>
	    	{
	    		MODIFY_REG(GPIOE_AFRL, GPIO_AF_CLEAR_MASK << Copy_PinIndex * GPIO_AF_PIN_BITS,
 8001322:	4b35      	ldr	r3, [pc, #212]	@ (80013f8 <GPIO_voidSetPinAlternateFunction+0x26c>)
 8001324:	681b      	ldr	r3, [r3, #0]
 8001326:	79ba      	ldrb	r2, [r7, #6]
 8001328:	0092      	lsls	r2, r2, #2
 800132a:	210f      	movs	r1, #15
 800132c:	fa01 f202 	lsl.w	r2, r1, r2
 8001330:	43d2      	mvns	r2, r2
 8001332:	4013      	ands	r3, r2
 8001334:	7979      	ldrb	r1, [r7, #5]
 8001336:	79ba      	ldrb	r2, [r7, #6]
 8001338:	0092      	lsls	r2, r2, #2
 800133a:	fa01 f202 	lsl.w	r2, r1, r2
 800133e:	4611      	mov	r1, r2
 8001340:	4a2d      	ldr	r2, [pc, #180]	@ (80013f8 <GPIO_voidSetPinAlternateFunction+0x26c>)
 8001342:	430b      	orrs	r3, r1
 8001344:	6013      	str	r3, [r2, #0]
	    	else
	    	{
	    		MODIFY_REG(GPIOE_AFRH, GPIO_AF_CLEAR_MASK << (Copy_PinIndex-8) * GPIO_AF_PIN_BITS,
	    				Copy_u8AlternateFunction << (Copy_PinIndex-8) * GPIO_AF_PIN_BITS);
	    	}
	      break;
 8001346:	e040      	b.n	80013ca <GPIO_voidSetPinAlternateFunction+0x23e>
	    		MODIFY_REG(GPIOE_AFRH, GPIO_AF_CLEAR_MASK << (Copy_PinIndex-8) * GPIO_AF_PIN_BITS,
 8001348:	4b2c      	ldr	r3, [pc, #176]	@ (80013fc <GPIO_voidSetPinAlternateFunction+0x270>)
 800134a:	681b      	ldr	r3, [r3, #0]
 800134c:	79ba      	ldrb	r2, [r7, #6]
 800134e:	3a08      	subs	r2, #8
 8001350:	0092      	lsls	r2, r2, #2
 8001352:	210f      	movs	r1, #15
 8001354:	fa01 f202 	lsl.w	r2, r1, r2
 8001358:	43d2      	mvns	r2, r2
 800135a:	4013      	ands	r3, r2
 800135c:	7979      	ldrb	r1, [r7, #5]
 800135e:	79ba      	ldrb	r2, [r7, #6]
 8001360:	3a08      	subs	r2, #8
 8001362:	0092      	lsls	r2, r2, #2
 8001364:	fa01 f202 	lsl.w	r2, r1, r2
 8001368:	4611      	mov	r1, r2
 800136a:	4a24      	ldr	r2, [pc, #144]	@ (80013fc <GPIO_voidSetPinAlternateFunction+0x270>)
 800136c:	430b      	orrs	r3, r1
 800136e:	6013      	str	r3, [r2, #0]
	      break;
 8001370:	e02b      	b.n	80013ca <GPIO_voidSetPinAlternateFunction+0x23e>
	    case GPIO_PORTH:
	    	if(Copy_PinIndex < 8)
 8001372:	79bb      	ldrb	r3, [r7, #6]
 8001374:	2b07      	cmp	r3, #7
 8001376:	d812      	bhi.n	800139e <GPIO_voidSetPinAlternateFunction+0x212>
	    	{
	    		MODIFY_REG(GPIOH_AFRL, GPIO_AF_CLEAR_MASK << Copy_PinIndex * GPIO_AF_PIN_BITS,
 8001378:	4b21      	ldr	r3, [pc, #132]	@ (8001400 <GPIO_voidSetPinAlternateFunction+0x274>)
 800137a:	681b      	ldr	r3, [r3, #0]
 800137c:	79ba      	ldrb	r2, [r7, #6]
 800137e:	0092      	lsls	r2, r2, #2
 8001380:	210f      	movs	r1, #15
 8001382:	fa01 f202 	lsl.w	r2, r1, r2
 8001386:	43d2      	mvns	r2, r2
 8001388:	4013      	ands	r3, r2
 800138a:	7979      	ldrb	r1, [r7, #5]
 800138c:	79ba      	ldrb	r2, [r7, #6]
 800138e:	0092      	lsls	r2, r2, #2
 8001390:	fa01 f202 	lsl.w	r2, r1, r2
 8001394:	4611      	mov	r1, r2
 8001396:	4a1a      	ldr	r2, [pc, #104]	@ (8001400 <GPIO_voidSetPinAlternateFunction+0x274>)
 8001398:	430b      	orrs	r3, r1
 800139a:	6013      	str	r3, [r2, #0]
	    	else
	    	{
	    		MODIFY_REG(GPIOH_AFRH, GPIO_AF_CLEAR_MASK << (Copy_PinIndex-8) * GPIO_AF_PIN_BITS,
	    				Copy_u8AlternateFunction << (Copy_PinIndex-8) * GPIO_AF_PIN_BITS);
	    	}
	      break;
 800139c:	e015      	b.n	80013ca <GPIO_voidSetPinAlternateFunction+0x23e>
	    		MODIFY_REG(GPIOH_AFRH, GPIO_AF_CLEAR_MASK << (Copy_PinIndex-8) * GPIO_AF_PIN_BITS,
 800139e:	4b19      	ldr	r3, [pc, #100]	@ (8001404 <GPIO_voidSetPinAlternateFunction+0x278>)
 80013a0:	681b      	ldr	r3, [r3, #0]
 80013a2:	79ba      	ldrb	r2, [r7, #6]
 80013a4:	3a08      	subs	r2, #8
 80013a6:	0092      	lsls	r2, r2, #2
 80013a8:	210f      	movs	r1, #15
 80013aa:	fa01 f202 	lsl.w	r2, r1, r2
 80013ae:	43d2      	mvns	r2, r2
 80013b0:	4013      	ands	r3, r2
 80013b2:	7979      	ldrb	r1, [r7, #5]
 80013b4:	79ba      	ldrb	r2, [r7, #6]
 80013b6:	3a08      	subs	r2, #8
 80013b8:	0092      	lsls	r2, r2, #2
 80013ba:	fa01 f202 	lsl.w	r2, r1, r2
 80013be:	4611      	mov	r1, r2
 80013c0:	4a10      	ldr	r2, [pc, #64]	@ (8001404 <GPIO_voidSetPinAlternateFunction+0x278>)
 80013c2:	430b      	orrs	r3, r1
 80013c4:	6013      	str	r3, [r2, #0]
	      break;
 80013c6:	e000      	b.n	80013ca <GPIO_voidSetPinAlternateFunction+0x23e>
	    default:
	      break;
 80013c8:	bf00      	nop
	  }
}
 80013ca:	bf00      	nop
 80013cc:	370c      	adds	r7, #12
 80013ce:	46bd      	mov	sp, r7
 80013d0:	f85d 7b04 	ldr.w	r7, [sp], #4
 80013d4:	4770      	bx	lr
 80013d6:	bf00      	nop
 80013d8:	40020020 	.word	0x40020020
 80013dc:	40020024 	.word	0x40020024
 80013e0:	40020420 	.word	0x40020420
 80013e4:	40020424 	.word	0x40020424
 80013e8:	40020820 	.word	0x40020820
 80013ec:	40020824 	.word	0x40020824
 80013f0:	40020c20 	.word	0x40020c20
 80013f4:	40020c24 	.word	0x40020c24
 80013f8:	40021020 	.word	0x40021020
 80013fc:	40021024 	.word	0x40021024
 8001400:	40021c20 	.word	0x40021c20
 8001404:	40021c24 	.word	0x40021c24

08001408 <MNVIC_voidEnableIRQ>:
{
	MSCB_voidSetPriorityGrouping();
}

void MNVIC_voidEnableIRQ(IRQn_Type IRQn)
{
 8001408:	b480      	push	{r7}
 800140a:	b083      	sub	sp, #12
 800140c:	af00      	add	r7, sp, #0
 800140e:	4603      	mov	r3, r0
 8001410:	71fb      	strb	r3, [r7, #7]
	if(IRQn >=0)
 8001412:	f997 3007 	ldrsb.w	r3, [r7, #7]
 8001416:	2b00      	cmp	r3, #0
 8001418:	db0b      	blt.n	8001432 <MNVIC_voidEnableIRQ+0x2a>
	{
		NVIC->ISER[((u32)IRQn >> 5)] = (1UL << ((u32)IRQn & 0x1F));
 800141a:	79fb      	ldrb	r3, [r7, #7]
 800141c:	f003 021f 	and.w	r2, r3, #31
 8001420:	4907      	ldr	r1, [pc, #28]	@ (8001440 <MNVIC_voidEnableIRQ+0x38>)
 8001422:	f997 3007 	ldrsb.w	r3, [r7, #7]
 8001426:	095b      	lsrs	r3, r3, #5
 8001428:	2001      	movs	r0, #1
 800142a:	fa00 f202 	lsl.w	r2, r0, r2
 800142e:	f841 2023 	str.w	r2, [r1, r3, lsl #2]
	}
}
 8001432:	bf00      	nop
 8001434:	370c      	adds	r7, #12
 8001436:	46bd      	mov	sp, r7
 8001438:	f85d 7b04 	ldr.w	r7, [sp], #4
 800143c:	4770      	bx	lr
 800143e:	bf00      	nop
 8001440:	e000e100 	.word	0xe000e100

08001444 <RCC_void_HSI_Init>:
static void RCC_void_APB2Prescaler_Init(void);
/************************************************/

/******* Local Functions Implementation ********/
static void RCC_void_HSI_Init(void)
{
 8001444:	b480      	push	{r7}
 8001446:	af00      	add	r7, sp, #0
    SET_BIT(RCC_CR,RCC_CR_HSION_Pos);  // Enable HSI
 8001448:	4b14      	ldr	r3, [pc, #80]	@ (800149c <RCC_void_HSI_Init+0x58>)
 800144a:	681b      	ldr	r3, [r3, #0]
 800144c:	4a13      	ldr	r2, [pc, #76]	@ (800149c <RCC_void_HSI_Init+0x58>)
 800144e:	f043 0301 	orr.w	r3, r3, #1
 8001452:	6013      	str	r3, [r2, #0]
    CLR_BIT(RCC_CR,RCC_CR_HSEON_Pos); // Disable HSE  
 8001454:	4b11      	ldr	r3, [pc, #68]	@ (800149c <RCC_void_HSI_Init+0x58>)
 8001456:	681b      	ldr	r3, [r3, #0]
 8001458:	4a10      	ldr	r2, [pc, #64]	@ (800149c <RCC_void_HSI_Init+0x58>)
 800145a:	f423 3380 	bic.w	r3, r3, #65536	@ 0x10000
 800145e:	6013      	str	r3, [r2, #0]
    CLR_BIT(RCC_CR,RCC_CR_PLLON_Pos); // Disable PLL
 8001460:	4b0e      	ldr	r3, [pc, #56]	@ (800149c <RCC_void_HSI_Init+0x58>)
 8001462:	681b      	ldr	r3, [r3, #0]
 8001464:	4a0d      	ldr	r2, [pc, #52]	@ (800149c <RCC_void_HSI_Init+0x58>)
 8001466:	f023 7380 	bic.w	r3, r3, #16777216	@ 0x1000000
 800146a:	6013      	str	r3, [r2, #0]
    // Polling (Busy Wait)
    while (GET_BIT(RCC_CR,RCC_CR_HSIRDY_Pos) == 0);
 800146c:	bf00      	nop
 800146e:	4b0b      	ldr	r3, [pc, #44]	@ (800149c <RCC_void_HSI_Init+0x58>)
 8001470:	681b      	ldr	r3, [r3, #0]
 8001472:	f003 0302 	and.w	r3, r3, #2
 8001476:	2b00      	cmp	r3, #0
 8001478:	d0f9      	beq.n	800146e <RCC_void_HSI_Init+0x2a>
    CLR_BIT(RCC_CFGR,RCC_CFGR_SW0_Pos);
 800147a:	4b09      	ldr	r3, [pc, #36]	@ (80014a0 <RCC_void_HSI_Init+0x5c>)
 800147c:	681b      	ldr	r3, [r3, #0]
 800147e:	4a08      	ldr	r2, [pc, #32]	@ (80014a0 <RCC_void_HSI_Init+0x5c>)
 8001480:	f023 0301 	bic.w	r3, r3, #1
 8001484:	6013      	str	r3, [r2, #0]
    CLR_BIT(RCC_CFGR,RCC_CFGR_SW1_Pos);    
 8001486:	4b06      	ldr	r3, [pc, #24]	@ (80014a0 <RCC_void_HSI_Init+0x5c>)
 8001488:	681b      	ldr	r3, [r3, #0]
 800148a:	4a05      	ldr	r2, [pc, #20]	@ (80014a0 <RCC_void_HSI_Init+0x5c>)
 800148c:	f023 0302 	bic.w	r3, r3, #2
 8001490:	6013      	str	r3, [r2, #0]
}
 8001492:	bf00      	nop
 8001494:	46bd      	mov	sp, r7
 8001496:	f85d 7b04 	ldr.w	r7, [sp], #4
 800149a:	4770      	bx	lr
 800149c:	40023800 	.word	0x40023800
 80014a0:	40023808 	.word	0x40023808

080014a4 <RCC_void_AHB1Prescaler_Init>:
    FPEC_ACR = 0x02;
    CLR_BIT(RCC_CFGR,RCC_CFGR_SW0_Pos);
    SET_BIT(RCC_CFGR,RCC_CFGR_SW1_Pos); 
}
static void RCC_void_AHB1Prescaler_Init(void)
{
 80014a4:	b480      	push	{r7}
 80014a6:	af00      	add	r7, sp, #0
    #if   RCC_AHB_PRESCALER == RCC_AHB_DIV_1
        RCC_CFGR &= ~(RCC_AHB_PRESCALER_MASK);
 80014a8:	4b07      	ldr	r3, [pc, #28]	@ (80014c8 <RCC_void_AHB1Prescaler_Init+0x24>)
 80014aa:	681b      	ldr	r3, [r3, #0]
 80014ac:	4a06      	ldr	r2, [pc, #24]	@ (80014c8 <RCC_void_AHB1Prescaler_Init+0x24>)
 80014ae:	f023 03f0 	bic.w	r3, r3, #240	@ 0xf0
 80014b2:	6013      	str	r3, [r2, #0]
        RCC_CFGR |= RCC_AHB_DIV_1;
 80014b4:	4b04      	ldr	r3, [pc, #16]	@ (80014c8 <RCC_void_AHB1Prescaler_Init+0x24>)
 80014b6:	4a04      	ldr	r2, [pc, #16]	@ (80014c8 <RCC_void_AHB1Prescaler_Init+0x24>)
 80014b8:	681b      	ldr	r3, [r3, #0]
 80014ba:	6013      	str	r3, [r2, #0]
        RCC_CFGR |= RCC_AHB_DIV_256;
    #elif RCC_AHB_PRESCALER == RCC_AHB_DIV_512
        RCC_CFGR &= ~(RCC_AHB_PRESCALER_MASK);
        RCC_CFGR |= RCC_AHB_DIV_512;
    #endif
}
 80014bc:	bf00      	nop
 80014be:	46bd      	mov	sp, r7
 80014c0:	f85d 7b04 	ldr.w	r7, [sp], #4
 80014c4:	4770      	bx	lr
 80014c6:	bf00      	nop
 80014c8:	40023808 	.word	0x40023808

080014cc <RCC_void_APB1Prescaler_Init>:
static void RCC_void_APB1Prescaler_Init(void)
{
 80014cc:	b480      	push	{r7}
 80014ce:	af00      	add	r7, sp, #0
    #if RCC_APB1_PRESCALER == RCC_APB1_DIV_1
        RCC_CFGR &= ~(RCC_APB1_PRESCALER_MASK);
        RCC_CFGR |= RCC_APB1_DIV_1;
    #elif RCC_APB1_PRESCALER == RCC_APB1_DIV_2
        RCC_CFGR &= ~(RCC_APB1_PRESCALER_MASK);
 80014d0:	4b08      	ldr	r3, [pc, #32]	@ (80014f4 <RCC_void_APB1Prescaler_Init+0x28>)
 80014d2:	681b      	ldr	r3, [r3, #0]
 80014d4:	4a07      	ldr	r2, [pc, #28]	@ (80014f4 <RCC_void_APB1Prescaler_Init+0x28>)
 80014d6:	f423 53e0 	bic.w	r3, r3, #7168	@ 0x1c00
 80014da:	6013      	str	r3, [r2, #0]
        RCC_CFGR |= RCC_APB1_DIV_2;
 80014dc:	4b05      	ldr	r3, [pc, #20]	@ (80014f4 <RCC_void_APB1Prescaler_Init+0x28>)
 80014de:	681b      	ldr	r3, [r3, #0]
 80014e0:	4a04      	ldr	r2, [pc, #16]	@ (80014f4 <RCC_void_APB1Prescaler_Init+0x28>)
 80014e2:	f443 5380 	orr.w	r3, r3, #4096	@ 0x1000
 80014e6:	6013      	str	r3, [r2, #0]
        RCC_CFGR |= RCC_APB1_DIV_8;
    #elif RCC_APB1_PRESCALER == RCC_APB1_DIV_16
        RCC_CFGR &= ~(RCC_APB1_PRESCALER_MASK);
        RCC_CFGR |= RCC_APB1_DIV_16;
    #endif
}
 80014e8:	bf00      	nop
 80014ea:	46bd      	mov	sp, r7
 80014ec:	f85d 7b04 	ldr.w	r7, [sp], #4
 80014f0:	4770      	bx	lr
 80014f2:	bf00      	nop
 80014f4:	40023808 	.word	0x40023808

080014f8 <RCC_void_APB2Prescaler_Init>:
static void RCC_void_APB2Prescaler_Init(void)
{
 80014f8:	b480      	push	{r7}
 80014fa:	af00      	add	r7, sp, #0
    #if (RCC_APB2_PRESCALER == RCC_APB2_DIV_1)
        RCC_CFGR &= ~(RCC_APB2_PRESCALER_MASK);
 80014fc:	4b07      	ldr	r3, [pc, #28]	@ (800151c <RCC_void_APB2Prescaler_Init+0x24>)
 80014fe:	681b      	ldr	r3, [r3, #0]
 8001500:	4a06      	ldr	r2, [pc, #24]	@ (800151c <RCC_void_APB2Prescaler_Init+0x24>)
 8001502:	f423 4360 	bic.w	r3, r3, #57344	@ 0xe000
 8001506:	6013      	str	r3, [r2, #0]
        RCC_CFGR |= RCC_APB2_DIV_1;
 8001508:	4b04      	ldr	r3, [pc, #16]	@ (800151c <RCC_void_APB2Prescaler_Init+0x24>)
 800150a:	4a04      	ldr	r2, [pc, #16]	@ (800151c <RCC_void_APB2Prescaler_Init+0x24>)
 800150c:	681b      	ldr	r3, [r3, #0]
 800150e:	6013      	str	r3, [r2, #0]
        RCC_CFGR |= RCC_APB2_DIV_8;
    #elif (RCC_APB2_PRESCALER == RCC_APB2_DIV_16)
        RCC_CFGR &= ~(RCC_APB2_PRESCALER_MASK);
        RCC_CFGR |= RCC_APB2_DIV_16;
    #endif
}
 8001510:	bf00      	nop
 8001512:	46bd      	mov	sp, r7
 8001514:	f85d 7b04 	ldr.w	r7, [sp], #4
 8001518:	4770      	bx	lr
 800151a:	bf00      	nop
 800151c:	40023808 	.word	0x40023808

08001520 <RCC_voidInit>:
/**********************************************  */
void RCC_voidInit(void)
{
 8001520:	b580      	push	{r7, lr}
 8001522:	af00      	add	r7, sp, #0
    RCC_void_AHB1Prescaler_Init();
 8001524:	f7ff ffbe 	bl	80014a4 <RCC_void_AHB1Prescaler_Init>
    RCC_void_APB1Prescaler_Init();
 8001528:	f7ff ffd0 	bl	80014cc <RCC_void_APB1Prescaler_Init>
    RCC_void_APB2Prescaler_Init();
 800152c:	f7ff ffe4 	bl	80014f8 <RCC_void_APB2Prescaler_Init>
    #if RCC_CLOCK_SOURCE == RCC_CLK_HSI
        RCC_void_HSI_Init();        
 8001530:	f7ff ff88 	bl	8001444 <RCC_void_HSI_Init>
    #elif RCC_CLOCK_SOURCE == RCC_CLK_PLL
        RCC_void_PLL_Init();
    #else
        #error "RCC_ClOCK_SOURCE_Configuration_Error"
    #endif
}
 8001534:	bf00      	nop
 8001536:	bd80      	pop	{r7, pc}

08001538 <RCC_voidEnablePeripheralClock>:
    else
    {
        // Error
    }
}
void RCC_voidEnablePeripheralClock (u8 Copy_u8BusName, u8 Copy_u8PeripheralName){
 8001538:	b480      	push	{r7}
 800153a:	b083      	sub	sp, #12
 800153c:	af00      	add	r7, sp, #0
 800153e:	4603      	mov	r3, r0
 8001540:	460a      	mov	r2, r1
 8001542:	71fb      	strb	r3, [r7, #7]
 8001544:	4613      	mov	r3, r2
 8001546:	71bb      	strb	r3, [r7, #6]
    switch (Copy_u8BusName)
 8001548:	79fb      	ldrb	r3, [r7, #7]
 800154a:	2b02      	cmp	r3, #2
 800154c:	d01c      	beq.n	8001588 <RCC_voidEnablePeripheralClock+0x50>
 800154e:	2b02      	cmp	r3, #2
 8001550:	dc25      	bgt.n	800159e <RCC_voidEnablePeripheralClock+0x66>
 8001552:	2b00      	cmp	r3, #0
 8001554:	d002      	beq.n	800155c <RCC_voidEnablePeripheralClock+0x24>
 8001556:	2b01      	cmp	r3, #1
 8001558:	d00b      	beq.n	8001572 <RCC_voidEnablePeripheralClock+0x3a>
        SET_BIT(RCC_APB2ENR,Copy_u8PeripheralName);
        /* code */
        break;  
    default:
        // Error
        break;
 800155a:	e020      	b.n	800159e <RCC_voidEnablePeripheralClock+0x66>
        SET_BIT(RCC_AHB1ENR,Copy_u8PeripheralName);
 800155c:	4b13      	ldr	r3, [pc, #76]	@ (80015ac <RCC_voidEnablePeripheralClock+0x74>)
 800155e:	681b      	ldr	r3, [r3, #0]
 8001560:	79ba      	ldrb	r2, [r7, #6]
 8001562:	2101      	movs	r1, #1
 8001564:	fa01 f202 	lsl.w	r2, r1, r2
 8001568:	4611      	mov	r1, r2
 800156a:	4a10      	ldr	r2, [pc, #64]	@ (80015ac <RCC_voidEnablePeripheralClock+0x74>)
 800156c:	430b      	orrs	r3, r1
 800156e:	6013      	str	r3, [r2, #0]
        break;
 8001570:	e016      	b.n	80015a0 <RCC_voidEnablePeripheralClock+0x68>
        SET_BIT(RCC_APB1ENR,Copy_u8PeripheralName);
 8001572:	4b0f      	ldr	r3, [pc, #60]	@ (80015b0 <RCC_voidEnablePeripheralClock+0x78>)
 8001574:	681b      	ldr	r3, [r3, #0]
 8001576:	79ba      	ldrb	r2, [r7, #6]
 8001578:	2101      	movs	r1, #1
 800157a:	fa01 f202 	lsl.w	r2, r1, r2
 800157e:	4611      	mov	r1, r2
 8001580:	4a0b      	ldr	r2, [pc, #44]	@ (80015b0 <RCC_voidEnablePeripheralClock+0x78>)
 8001582:	430b      	orrs	r3, r1
 8001584:	6013      	str	r3, [r2, #0]
        break;
 8001586:	e00b      	b.n	80015a0 <RCC_voidEnablePeripheralClock+0x68>
        SET_BIT(RCC_APB2ENR,Copy_u8PeripheralName);
 8001588:	4b0a      	ldr	r3, [pc, #40]	@ (80015b4 <RCC_voidEnablePeripheralClock+0x7c>)
 800158a:	681b      	ldr	r3, [r3, #0]
 800158c:	79ba      	ldrb	r2, [r7, #6]
 800158e:	2101      	movs	r1, #1
 8001590:	fa01 f202 	lsl.w	r2, r1, r2
 8001594:	4611      	mov	r1, r2
 8001596:	4a07      	ldr	r2, [pc, #28]	@ (80015b4 <RCC_voidEnablePeripheralClock+0x7c>)
 8001598:	430b      	orrs	r3, r1
 800159a:	6013      	str	r3, [r2, #0]
        break;  
 800159c:	e000      	b.n	80015a0 <RCC_voidEnablePeripheralClock+0x68>
        break;
 800159e:	bf00      	nop
    }
}
 80015a0:	bf00      	nop
 80015a2:	370c      	adds	r7, #12
 80015a4:	46bd      	mov	sp, r7
 80015a6:	f85d 7b04 	ldr.w	r7, [sp], #4
 80015aa:	4770      	bx	lr
 80015ac:	40023830 	.word	0x40023830
 80015b0:	40023840 	.word	0x40023840
 80015b4:	40023844 	.word	0x40023844

080015b8 <MSysTick_voidInit>:
volatile PtrFunction SysTick_CallBack = NULL;
volatile u8 SysTick_Mode = SysTick_SingleInterval_Mode;
/********************/

void MSysTick_voidInit(void)
{
 80015b8:	b480      	push	{r7}
 80015ba:	af00      	add	r7, sp, #0
		/* Select The Processor Clock */
#if (SYSTICK_CLOCK_SOURCE == SYSTICK_AHB_DIV_1)
		SET_BIT(SysTick->CTRL,SysTick_CTRL_CLKSOURCE_Pos);
#elif (SYSTICK_CLOCK_SOURCE == SYSTICK_AHB_DIV_8)
		CLR_BIT(SysTick->CTRL,SysTick_CTRL_CLKSOURCE_Pos);
 80015bc:	4b0b      	ldr	r3, [pc, #44]	@ (80015ec <MSysTick_voidInit+0x34>)
 80015be:	681b      	ldr	r3, [r3, #0]
 80015c0:	4a0a      	ldr	r2, [pc, #40]	@ (80015ec <MSysTick_voidInit+0x34>)
 80015c2:	f023 0304 	bic.w	r3, r3, #4
 80015c6:	6013      	str	r3, [r2, #0]
		#if(SYSTICK_INT_CTRL == SYSTICK_ENABLE)
    /*Enable SysTick IRQ */
		SET_BIT(SysTick->CTRL,SysTick_CTRL_TICKINT_Pos);
    #elif(SYSTICK_INT_CTRL == SYSTICK_DISABLE)
    /*Disable SysTick IRQ */
		CLR_BIT(SysTick->CTRL,SysTick_CTRL_TICKINT_Pos);
 80015c8:	4b08      	ldr	r3, [pc, #32]	@ (80015ec <MSysTick_voidInit+0x34>)
 80015ca:	681b      	ldr	r3, [r3, #0]
 80015cc:	4a07      	ldr	r2, [pc, #28]	@ (80015ec <MSysTick_voidInit+0x34>)
 80015ce:	f023 0302 	bic.w	r3, r3, #2
 80015d2:	6013      	str	r3, [r2, #0]
    #endif
    #if(SYSTICK_CTRL == SYSTICK_ENABLE)
    /*Enable SysTick Counter*/
    SET_BIT(SysTick->CTRL,SysTick_CTRL_ENABLE_Pos);
 80015d4:	4b05      	ldr	r3, [pc, #20]	@ (80015ec <MSysTick_voidInit+0x34>)
 80015d6:	681b      	ldr	r3, [r3, #0]
 80015d8:	4a04      	ldr	r2, [pc, #16]	@ (80015ec <MSysTick_voidInit+0x34>)
 80015da:	f043 0301 	orr.w	r3, r3, #1
 80015de:	6013      	str	r3, [r2, #0]
    #elif(SYSTICK_CTRL == SYSTICK_DISABLE)
    /* Disable SysTick Counter */
		CLR_BIT(SysTick->CTRL,SysTick_CTRL_ENABLE_Pos);
    #endif
}
 80015e0:	bf00      	nop
 80015e2:	46bd      	mov	sp, r7
 80015e4:	f85d 7b04 	ldr.w	r7, [sp], #4
 80015e8:	4770      	bx	lr
 80015ea:	bf00      	nop
 80015ec:	e000e010 	.word	0xe000e010

080015f0 <MSysTick_voidDeInit>:
void MSysTick_voidDeInit(void)
{
 80015f0:	b480      	push	{r7}
 80015f2:	af00      	add	r7, sp, #0
	/* Disable SysTick Counter */
	CLR_BIT(SysTick->CTRL,SysTick_CTRL_ENABLE_Pos);
 80015f4:	4b0b      	ldr	r3, [pc, #44]	@ (8001624 <MSysTick_voidDeInit+0x34>)
 80015f6:	681b      	ldr	r3, [r3, #0]
 80015f8:	4a0a      	ldr	r2, [pc, #40]	@ (8001624 <MSysTick_voidDeInit+0x34>)
 80015fa:	f023 0301 	bic.w	r3, r3, #1
 80015fe:	6013      	str	r3, [r2, #0]
	/* Reset The SysTick Reload Register */
	SysTick->LOAD = 0;
 8001600:	4b08      	ldr	r3, [pc, #32]	@ (8001624 <MSysTick_voidDeInit+0x34>)
 8001602:	2200      	movs	r2, #0
 8001604:	605a      	str	r2, [r3, #4]
	/* Reset The SysTick Counter Value*/
	SysTick->VAL = 0;
 8001606:	4b07      	ldr	r3, [pc, #28]	@ (8001624 <MSysTick_voidDeInit+0x34>)
 8001608:	2200      	movs	r2, #0
 800160a:	609a      	str	r2, [r3, #8]
	/*Disable SysTick IRQ */
	CLR_BIT(SysTick->CTRL,SysTick_CTRL_TICKINT_Pos);
 800160c:	4b05      	ldr	r3, [pc, #20]	@ (8001624 <MSysTick_voidDeInit+0x34>)
 800160e:	681b      	ldr	r3, [r3, #0]
 8001610:	4a04      	ldr	r2, [pc, #16]	@ (8001624 <MSysTick_voidDeInit+0x34>)
 8001612:	f023 0302 	bic.w	r3, r3, #2
 8001616:	6013      	str	r3, [r2, #0]
}
 8001618:	bf00      	nop
 800161a:	46bd      	mov	sp, r7
 800161c:	f85d 7b04 	ldr.w	r7, [sp], #4
 8001620:	4770      	bx	lr
 8001622:	bf00      	nop
 8001624:	e000e010 	.word	0xe000e010

08001628 <SysTick_Handler>:
{
	SysTick->LOAD = Copy_u32Ticks;
	SysTick->VAL = 0;
}
void SysTick_Handler(void)
{
 8001628:	b580      	push	{r7, lr}
 800162a:	af00      	add	r7, sp, #0
	if (SysTick_Mode == SysTick_SingleInterval_Mode)
 800162c:	4b07      	ldr	r3, [pc, #28]	@ (800164c <SysTick_Handler+0x24>)
 800162e:	781b      	ldrb	r3, [r3, #0]
 8001630:	b2db      	uxtb	r3, r3
 8001632:	2b00      	cmp	r3, #0
 8001634:	d101      	bne.n	800163a <SysTick_Handler+0x12>
	{
		MSysTick_voidDeInit();
 8001636:	f7ff ffdb 	bl	80015f0 <MSysTick_voidDeInit>
	}
	if(SysTick_CallBack)
 800163a:	4b05      	ldr	r3, [pc, #20]	@ (8001650 <SysTick_Handler+0x28>)
 800163c:	681b      	ldr	r3, [r3, #0]
 800163e:	2b00      	cmp	r3, #0
 8001640:	d002      	beq.n	8001648 <SysTick_Handler+0x20>
	{
		SysTick_CallBack();
 8001642:	4b03      	ldr	r3, [pc, #12]	@ (8001650 <SysTick_Handler+0x28>)
 8001644:	681b      	ldr	r3, [r3, #0]
 8001646:	4798      	blx	r3
	}
}
 8001648:	bf00      	nop
 800164a:	bd80      	pop	{r7, pc}
 800164c:	20000110 	.word	0x20000110
 8001650:	2000010c 	.word	0x2000010c
 8001654:	00000000 	.word	0x00000000

08001658 <MSysTick_void_ASYNC_Delay_ms>:
	SysTick->LOAD = 0;
	/* Reset The SysTick Counter Value*/
	SysTick->VAL = 0;
}
void MSysTick_void_ASYNC_Delay_ms(u32 time_ms,PtrFunction CallBack_Ptr)
{
 8001658:	b580      	push	{r7, lr}
 800165a:	b084      	sub	sp, #16
 800165c:	af00      	add	r7, sp, #0
 800165e:	6078      	str	r0, [r7, #4]
 8001660:	6039      	str	r1, [r7, #0]
	u32 Local_ticks = 0;
 8001662:	2300      	movs	r3, #0
 8001664:	60fb      	str	r3, [r7, #12]
	if (CallBack_Ptr != NULL)
 8001666:	683b      	ldr	r3, [r7, #0]
 8001668:	2b00      	cmp	r3, #0
 800166a:	d02e      	beq.n	80016ca <MSysTick_void_ASYNC_Delay_ms+0x72>
		{
			Local_ticks = (u32)(((SYSTICK_AHB_CLK/SYSTICK_CLOCK_SOURCE)/1000.0)*time_ms);
 800166c:	6878      	ldr	r0, [r7, #4]
 800166e:	f7fe fef5 	bl	800045c <__aeabi_ui2d>
 8001672:	a31c      	add	r3, pc, #112	@ (adr r3, 80016e4 <MSysTick_void_ASYNC_Delay_ms+0x8c>)
 8001674:	e9d3 2300 	ldrd	r2, r3, [r3]
 8001678:	f7fe ff6a 	bl	8000550 <__aeabi_dmul>
 800167c:	4602      	mov	r2, r0
 800167e:	460b      	mov	r3, r1
 8001680:	4610      	mov	r0, r2
 8001682:	4619      	mov	r1, r3
 8001684:	f7ff f976 	bl	8000974 <__aeabi_d2uiz>
 8001688:	4603      	mov	r3, r0
 800168a:	60fb      	str	r3, [r7, #12]
			if(Local_ticks>SysTick_LOAD_RELOAD_Msk)
 800168c:	68fb      	ldr	r3, [r7, #12]
 800168e:	f1b3 7f80 	cmp.w	r3, #16777216	@ 0x1000000
 8001692:	d302      	bcc.n	800169a <MSysTick_void_ASYNC_Delay_ms+0x42>
			{
				Local_ticks = SysTick_LOAD_RELOAD_Msk;
 8001694:	f06f 437f 	mvn.w	r3, #4278190080	@ 0xff000000
 8001698:	60fb      	str	r3, [r7, #12]
			}
		  /* Set Reload Register to SysTick Ticks */
		  	SysTick->LOAD = Local_ticks;
 800169a:	4a0f      	ldr	r2, [pc, #60]	@ (80016d8 <MSysTick_void_ASYNC_Delay_ms+0x80>)
 800169c:	68fb      	ldr	r3, [r7, #12]
 800169e:	6053      	str	r3, [r2, #4]
		  	SysTick->VAL = 0;
 80016a0:	4b0d      	ldr	r3, [pc, #52]	@ (80016d8 <MSysTick_void_ASYNC_Delay_ms+0x80>)
 80016a2:	2200      	movs	r2, #0
 80016a4:	609a      	str	r2, [r3, #8]
			/* Copy The User CallBack to Local ptrFunction */
			SysTick_CallBack = CallBack_Ptr;
 80016a6:	4a0d      	ldr	r2, [pc, #52]	@ (80016dc <MSysTick_void_ASYNC_Delay_ms+0x84>)
 80016a8:	683b      	ldr	r3, [r7, #0]
 80016aa:	6013      	str	r3, [r2, #0]
			/* Set The SysTick Timer to Single Interval Mode */
			SysTick_Mode = SysTick_SingleInterval_Mode;
 80016ac:	4b0c      	ldr	r3, [pc, #48]	@ (80016e0 <MSysTick_void_ASYNC_Delay_ms+0x88>)
 80016ae:	2200      	movs	r2, #0
 80016b0:	701a      	strb	r2, [r3, #0]
			/*Enable SysTick IRQ */
			SET_BIT(SysTick->CTRL,SysTick_CTRL_TICKINT_Pos);
 80016b2:	4b09      	ldr	r3, [pc, #36]	@ (80016d8 <MSysTick_void_ASYNC_Delay_ms+0x80>)
 80016b4:	681b      	ldr	r3, [r3, #0]
 80016b6:	4a08      	ldr	r2, [pc, #32]	@ (80016d8 <MSysTick_void_ASYNC_Delay_ms+0x80>)
 80016b8:	f043 0302 	orr.w	r3, r3, #2
 80016bc:	6013      	str	r3, [r2, #0]
			/* Enable SysTick Counter */
			SET_BIT(SysTick->CTRL,SysTick_CTRL_ENABLE_Pos);
 80016be:	4b06      	ldr	r3, [pc, #24]	@ (80016d8 <MSysTick_void_ASYNC_Delay_ms+0x80>)
 80016c0:	681b      	ldr	r3, [r3, #0]
 80016c2:	4a05      	ldr	r2, [pc, #20]	@ (80016d8 <MSysTick_void_ASYNC_Delay_ms+0x80>)
 80016c4:	f043 0301 	orr.w	r3, r3, #1
 80016c8:	6013      	str	r3, [r2, #0]
		}
		else { /* Nothing */}
}
 80016ca:	bf00      	nop
 80016cc:	3710      	adds	r7, #16
 80016ce:	46bd      	mov	sp, r7
 80016d0:	bd80      	pop	{r7, pc}
 80016d2:	bf00      	nop
 80016d4:	f3af 8000 	nop.w
 80016d8:	e000e010 	.word	0xe000e010
 80016dc:	2000010c 	.word	0x2000010c
 80016e0:	20000110 	.word	0x20000110
 80016e4:	00000000 	.word	0x00000000
 80016e8:	40c48200 	.word	0x40c48200

080016ec <UART_ClockEnable>:
static void USART_Timeout_Handler(void);
/**********************************************************************************************************************
 *  LOCAL FUNCTIONS
 *********************************************************************************************************************/
static void UART_ClockEnable(const UART_InitTypeDef* UARTConfig)
{
 80016ec:	b580      	push	{r7, lr}
 80016ee:	b082      	sub	sp, #8
 80016f0:	af00      	add	r7, sp, #0
 80016f2:	6078      	str	r0, [r7, #4]
	if(UARTConfig->UART_Instance == USART1)
 80016f4:	687b      	ldr	r3, [r7, #4]
 80016f6:	681b      	ldr	r3, [r3, #0]
 80016f8:	4a0f      	ldr	r2, [pc, #60]	@ (8001738 <UART_ClockEnable+0x4c>)
 80016fa:	4293      	cmp	r3, r2
 80016fc:	d104      	bne.n	8001708 <UART_ClockEnable+0x1c>
		{
			RCC_voidEnablePeripheralClock(RCC_APB2, RCC_APB2_USART1EN);
 80016fe:	2104      	movs	r1, #4
 8001700:	2002      	movs	r0, #2
 8001702:	f7ff ff19 	bl	8001538 <RCC_voidEnablePeripheralClock>
		}
	else if(UARTConfig->UART_Instance == USART6)
		{
			RCC_voidEnablePeripheralClock(RCC_APB2, RCC_APB2_USART6EN);
		}
}
 8001706:	e012      	b.n	800172e <UART_ClockEnable+0x42>
	else if(UARTConfig->UART_Instance == USART2)
 8001708:	687b      	ldr	r3, [r7, #4]
 800170a:	681b      	ldr	r3, [r3, #0]
 800170c:	4a0b      	ldr	r2, [pc, #44]	@ (800173c <UART_ClockEnable+0x50>)
 800170e:	4293      	cmp	r3, r2
 8001710:	d104      	bne.n	800171c <UART_ClockEnable+0x30>
			RCC_voidEnablePeripheralClock(RCC_APB1, RCC_APB1_USART2EN);
 8001712:	2111      	movs	r1, #17
 8001714:	2001      	movs	r0, #1
 8001716:	f7ff ff0f 	bl	8001538 <RCC_voidEnablePeripheralClock>
}
 800171a:	e008      	b.n	800172e <UART_ClockEnable+0x42>
	else if(UARTConfig->UART_Instance == USART6)
 800171c:	687b      	ldr	r3, [r7, #4]
 800171e:	681b      	ldr	r3, [r3, #0]
 8001720:	4a07      	ldr	r2, [pc, #28]	@ (8001740 <UART_ClockEnable+0x54>)
 8001722:	4293      	cmp	r3, r2
 8001724:	d103      	bne.n	800172e <UART_ClockEnable+0x42>
			RCC_voidEnablePeripheralClock(RCC_APB2, RCC_APB2_USART6EN);
 8001726:	2105      	movs	r1, #5
 8001728:	2002      	movs	r0, #2
 800172a:	f7ff ff05 	bl	8001538 <RCC_voidEnablePeripheralClock>
}
 800172e:	bf00      	nop
 8001730:	3708      	adds	r7, #8
 8001732:	46bd      	mov	sp, r7
 8001734:	bd80      	pop	{r7, pc}
 8001736:	bf00      	nop
 8001738:	40011000 	.word	0x40011000
 800173c:	40004400 	.word	0x40004400
 8001740:	40011400 	.word	0x40011400

08001744 <UART_voidGPIOConfig>:
static void UART_voidGPIOConfig(const UART_InitTypeDef* UARTConfig)
{
 8001744:	b580      	push	{r7, lr}
 8001746:	b082      	sub	sp, #8
 8001748:	af00      	add	r7, sp, #0
 800174a:	6078      	str	r0, [r7, #4]
	RCC_voidEnablePeripheralClock(RCC_AHB, RCC_AHB_GPIOAEN);
 800174c:	2100      	movs	r1, #0
 800174e:	2000      	movs	r0, #0
 8001750:	f7ff fef2 	bl	8001538 <RCC_voidEnablePeripheralClock>
	if(UARTConfig->UART_Instance == USART1)
 8001754:	687b      	ldr	r3, [r7, #4]
 8001756:	681b      	ldr	r3, [r3, #0]
 8001758:	4a27      	ldr	r2, [pc, #156]	@ (80017f8 <UART_voidGPIOConfig+0xb4>)
 800175a:	4293      	cmp	r3, r2
 800175c:	d114      	bne.n	8001788 <UART_voidGPIOConfig+0x44>
		{
		GPIO_voidSetPinMode(GPIO_PORTA,GPIO_PIN9, GPIO_ALTERNATE_FUNCTION_PIN_MODE);
 800175e:	2202      	movs	r2, #2
 8001760:	2109      	movs	r1, #9
 8001762:	2000      	movs	r0, #0
 8001764:	f7ff fc70 	bl	8001048 <GPIO_voidSetPinMode>
		GPIO_voidSetPinAlternateFunction(GPIO_PORTA,GPIO_PIN9, USART1_TX_AF);
 8001768:	2207      	movs	r2, #7
 800176a:	2109      	movs	r1, #9
 800176c:	2000      	movs	r0, #0
 800176e:	f7ff fd0d 	bl	800118c <GPIO_voidSetPinAlternateFunction>

		GPIO_voidSetPinMode(GPIO_PORTA,GPIO_PIN10, GPIO_ALTERNATE_FUNCTION_PIN_MODE);
 8001772:	2202      	movs	r2, #2
 8001774:	210a      	movs	r1, #10
 8001776:	2000      	movs	r0, #0
 8001778:	f7ff fc66 	bl	8001048 <GPIO_voidSetPinMode>
		GPIO_voidSetPinAlternateFunction(GPIO_PORTA,GPIO_PIN10, USART1_RX_AF);
 800177c:	2207      	movs	r2, #7
 800177e:	210a      	movs	r1, #10
 8001780:	2000      	movs	r0, #0
 8001782:	f7ff fd03 	bl	800118c <GPIO_voidSetPinAlternateFunction>
		GPIO_voidSetPinAlternateFunction(GPIO_PORTA,GPIO_PIN11, USART6_TX_AF);

		GPIO_voidSetPinMode(GPIO_PORTA,GPIO_PIN12, GPIO_ALTERNATE_FUNCTION_PIN_MODE);
		GPIO_voidSetPinAlternateFunction(GPIO_PORTA,GPIO_PIN12, USART6_RX_AF);
	}
}
 8001786:	e032      	b.n	80017ee <UART_voidGPIOConfig+0xaa>
	else if(UARTConfig->UART_Instance == USART2)
 8001788:	687b      	ldr	r3, [r7, #4]
 800178a:	681b      	ldr	r3, [r3, #0]
 800178c:	4a1b      	ldr	r2, [pc, #108]	@ (80017fc <UART_voidGPIOConfig+0xb8>)
 800178e:	4293      	cmp	r3, r2
 8001790:	d114      	bne.n	80017bc <UART_voidGPIOConfig+0x78>
		GPIO_voidSetPinMode(GPIO_PORTA,GPIO_PIN2, GPIO_ALTERNATE_FUNCTION_PIN_MODE);
 8001792:	2202      	movs	r2, #2
 8001794:	2102      	movs	r1, #2
 8001796:	2000      	movs	r0, #0
 8001798:	f7ff fc56 	bl	8001048 <GPIO_voidSetPinMode>
		GPIO_voidSetPinAlternateFunction(GPIO_PORTA,GPIO_PIN2, USART2_TX_AF);
 800179c:	2207      	movs	r2, #7
 800179e:	2102      	movs	r1, #2
 80017a0:	2000      	movs	r0, #0
 80017a2:	f7ff fcf3 	bl	800118c <GPIO_voidSetPinAlternateFunction>
		GPIO_voidSetPinMode(GPIO_PORTA,GPIO_PIN3, GPIO_ALTERNATE_FUNCTION_PIN_MODE);
 80017a6:	2202      	movs	r2, #2
 80017a8:	2103      	movs	r1, #3
 80017aa:	2000      	movs	r0, #0
 80017ac:	f7ff fc4c 	bl	8001048 <GPIO_voidSetPinMode>
		GPIO_voidSetPinAlternateFunction(GPIO_PORTA,GPIO_PIN3, USART2_RX_AF);
 80017b0:	2207      	movs	r2, #7
 80017b2:	2103      	movs	r1, #3
 80017b4:	2000      	movs	r0, #0
 80017b6:	f7ff fce9 	bl	800118c <GPIO_voidSetPinAlternateFunction>
}
 80017ba:	e018      	b.n	80017ee <UART_voidGPIOConfig+0xaa>
	else if(UARTConfig->UART_Instance == USART6)
 80017bc:	687b      	ldr	r3, [r7, #4]
 80017be:	681b      	ldr	r3, [r3, #0]
 80017c0:	4a0f      	ldr	r2, [pc, #60]	@ (8001800 <UART_voidGPIOConfig+0xbc>)
 80017c2:	4293      	cmp	r3, r2
 80017c4:	d113      	bne.n	80017ee <UART_voidGPIOConfig+0xaa>
		GPIO_voidSetPinMode(GPIO_PORTA,GPIO_PIN11, GPIO_ALTERNATE_FUNCTION_PIN_MODE);
 80017c6:	2202      	movs	r2, #2
 80017c8:	210b      	movs	r1, #11
 80017ca:	2000      	movs	r0, #0
 80017cc:	f7ff fc3c 	bl	8001048 <GPIO_voidSetPinMode>
		GPIO_voidSetPinAlternateFunction(GPIO_PORTA,GPIO_PIN11, USART6_TX_AF);
 80017d0:	2208      	movs	r2, #8
 80017d2:	210b      	movs	r1, #11
 80017d4:	2000      	movs	r0, #0
 80017d6:	f7ff fcd9 	bl	800118c <GPIO_voidSetPinAlternateFunction>
		GPIO_voidSetPinMode(GPIO_PORTA,GPIO_PIN12, GPIO_ALTERNATE_FUNCTION_PIN_MODE);
 80017da:	2202      	movs	r2, #2
 80017dc:	210c      	movs	r1, #12
 80017de:	2000      	movs	r0, #0
 80017e0:	f7ff fc32 	bl	8001048 <GPIO_voidSetPinMode>
		GPIO_voidSetPinAlternateFunction(GPIO_PORTA,GPIO_PIN12, USART6_RX_AF);
 80017e4:	2208      	movs	r2, #8
 80017e6:	210c      	movs	r1, #12
 80017e8:	2000      	movs	r0, #0
 80017ea:	f7ff fccf 	bl	800118c <GPIO_voidSetPinAlternateFunction>
}
 80017ee:	bf00      	nop
 80017f0:	3708      	adds	r7, #8
 80017f2:	46bd      	mov	sp, r7
 80017f4:	bd80      	pop	{r7, pc}
 80017f6:	bf00      	nop
 80017f8:	40011000 	.word	0x40011000
 80017fc:	40004400 	.word	0x40004400
 8001800:	40011400 	.word	0x40011400
 8001804:	00000000 	.word	0x00000000

08001808 <UART_SetBaudRate>:
static void UART_SetBaudRate(const UART_InitTypeDef* UARTConfig)
{
 8001808:	b580      	push	{r7, lr}
 800180a:	b086      	sub	sp, #24
 800180c:	af00      	add	r7, sp, #0
 800180e:	6078      	str	r0, [r7, #4]
	u16 Local_u16Mantissa = 0;
 8001810:	2300      	movs	r3, #0
 8001812:	82fb      	strh	r3, [r7, #22]
	u8 Local_u8Fraction = 0;
 8001814:	2300      	movs	r3, #0
 8001816:	757b      	strb	r3, [r7, #21]
	f64 Local_f32USARTDIV =0;
 8001818:	f04f 0200 	mov.w	r2, #0
 800181c:	f04f 0300 	mov.w	r3, #0
 8001820:	e9c7 2302 	strd	r2, r3, [r7, #8]
	if(UARTConfig->UART_Instance == USART1)
 8001824:	687b      	ldr	r3, [r7, #4]
 8001826:	681b      	ldr	r3, [r3, #0]
 8001828:	4a79      	ldr	r2, [pc, #484]	@ (8001a10 <UART_SetBaudRate+0x208>)
 800182a:	4293      	cmp	r3, r2
 800182c:	d145      	bne.n	80018ba <UART_SetBaudRate+0xb2>
	{
		Local_f32USARTDIV = (APB2_CLK*1.0)/(16.0* UARTConfig->UART_BaudRate);
 800182e:	687b      	ldr	r3, [r7, #4]
 8001830:	685b      	ldr	r3, [r3, #4]
 8001832:	4618      	mov	r0, r3
 8001834:	f7fe fe12 	bl	800045c <__aeabi_ui2d>
 8001838:	f04f 0200 	mov.w	r2, #0
 800183c:	4b75      	ldr	r3, [pc, #468]	@ (8001a14 <UART_SetBaudRate+0x20c>)
 800183e:	f7fe fe87 	bl	8000550 <__aeabi_dmul>
 8001842:	4602      	mov	r2, r0
 8001844:	460b      	mov	r3, r1
 8001846:	a16e      	add	r1, pc, #440	@ (adr r1, 8001a00 <UART_SetBaudRate+0x1f8>)
 8001848:	e9d1 0100 	ldrd	r0, r1, [r1]
 800184c:	f7fe ffaa 	bl	80007a4 <__aeabi_ddiv>
 8001850:	4602      	mov	r2, r0
 8001852:	460b      	mov	r3, r1
 8001854:	e9c7 2302 	strd	r2, r3, [r7, #8]
		Local_u16Mantissa = Local_f32USARTDIV;
 8001858:	e9d7 0102 	ldrd	r0, r1, [r7, #8]
 800185c:	f7ff f88a 	bl	8000974 <__aeabi_d2uiz>
 8001860:	4603      	mov	r3, r0
 8001862:	82fb      	strh	r3, [r7, #22]
		Local_u8Fraction = (((Local_f32USARTDIV - Local_u16Mantissa)*16.0)+0.5);
 8001864:	8afb      	ldrh	r3, [r7, #22]
 8001866:	4618      	mov	r0, r3
 8001868:	f7fe fe08 	bl	800047c <__aeabi_i2d>
 800186c:	4602      	mov	r2, r0
 800186e:	460b      	mov	r3, r1
 8001870:	e9d7 0102 	ldrd	r0, r1, [r7, #8]
 8001874:	f7fe fcb4 	bl	80001e0 <__aeabi_dsub>
 8001878:	4602      	mov	r2, r0
 800187a:	460b      	mov	r3, r1
 800187c:	4610      	mov	r0, r2
 800187e:	4619      	mov	r1, r3
 8001880:	f04f 0200 	mov.w	r2, #0
 8001884:	4b63      	ldr	r3, [pc, #396]	@ (8001a14 <UART_SetBaudRate+0x20c>)
 8001886:	f7fe fe63 	bl	8000550 <__aeabi_dmul>
 800188a:	4602      	mov	r2, r0
 800188c:	460b      	mov	r3, r1
 800188e:	4610      	mov	r0, r2
 8001890:	4619      	mov	r1, r3
 8001892:	f04f 0200 	mov.w	r2, #0
 8001896:	4b60      	ldr	r3, [pc, #384]	@ (8001a18 <UART_SetBaudRate+0x210>)
 8001898:	f7fe fca4 	bl	80001e4 <__adddf3>
 800189c:	4602      	mov	r2, r0
 800189e:	460b      	mov	r3, r1
 80018a0:	4610      	mov	r0, r2
 80018a2:	4619      	mov	r1, r3
 80018a4:	f7ff f866 	bl	8000974 <__aeabi_d2uiz>
 80018a8:	4603      	mov	r3, r0
 80018aa:	757b      	strb	r3, [r7, #21]
		USART1->USART_BRR = Local_u16Mantissa<<4 | Local_u8Fraction;
 80018ac:	8afb      	ldrh	r3, [r7, #22]
 80018ae:	011a      	lsls	r2, r3, #4
 80018b0:	7d7b      	ldrb	r3, [r7, #21]
 80018b2:	431a      	orrs	r2, r3
 80018b4:	4b56      	ldr	r3, [pc, #344]	@ (8001a10 <UART_SetBaudRate+0x208>)
 80018b6:	609a      	str	r2, [r3, #8]
			Local_f32USARTDIV = ((f32)APB2_CLK)/(16.0*UARTConfig->UART_BaudRate);
			Local_u16Mantissa = (u16)Local_f32USARTDIV;
			Local_u8Fraction = (u8)(((Local_f32USARTDIV - (f32)Local_u16Mantissa)*16)+0.5);
			USART6->USART_BRR = Local_u16Mantissa<<4 | Local_u8Fraction;
	}
}
 80018b8:	e09e      	b.n	80019f8 <UART_SetBaudRate+0x1f0>
	else if (UARTConfig->UART_Instance == USART2)
 80018ba:	687b      	ldr	r3, [r7, #4]
 80018bc:	681b      	ldr	r3, [r3, #0]
 80018be:	4a57      	ldr	r2, [pc, #348]	@ (8001a1c <UART_SetBaudRate+0x214>)
 80018c0:	4293      	cmp	r3, r2
 80018c2:	d14a      	bne.n	800195a <UART_SetBaudRate+0x152>
		Local_f32USARTDIV = ((f32)APB1_CLK)/(16.0*UARTConfig->UART_BaudRate);
 80018c4:	687b      	ldr	r3, [r7, #4]
 80018c6:	685b      	ldr	r3, [r3, #4]
 80018c8:	4618      	mov	r0, r3
 80018ca:	f7fe fdc7 	bl	800045c <__aeabi_ui2d>
 80018ce:	f04f 0200 	mov.w	r2, #0
 80018d2:	4b50      	ldr	r3, [pc, #320]	@ (8001a14 <UART_SetBaudRate+0x20c>)
 80018d4:	f7fe fe3c 	bl	8000550 <__aeabi_dmul>
 80018d8:	4602      	mov	r2, r0
 80018da:	460b      	mov	r3, r1
 80018dc:	a14a      	add	r1, pc, #296	@ (adr r1, 8001a08 <UART_SetBaudRate+0x200>)
 80018de:	e9d1 0100 	ldrd	r0, r1, [r1]
 80018e2:	f7fe ff5f 	bl	80007a4 <__aeabi_ddiv>
 80018e6:	4602      	mov	r2, r0
 80018e8:	460b      	mov	r3, r1
 80018ea:	e9c7 2302 	strd	r2, r3, [r7, #8]
		Local_u16Mantissa = Local_f32USARTDIV;
 80018ee:	e9d7 0102 	ldrd	r0, r1, [r7, #8]
 80018f2:	f7ff f83f 	bl	8000974 <__aeabi_d2uiz>
 80018f6:	4603      	mov	r3, r0
 80018f8:	82fb      	strh	r3, [r7, #22]
		Local_u8Fraction = (((Local_f32USARTDIV - (f32)Local_u16Mantissa)*16)+0.5);
 80018fa:	8afb      	ldrh	r3, [r7, #22]
 80018fc:	ee07 3a90 	vmov	s15, r3
 8001900:	eef8 7a67 	vcvt.f32.u32	s15, s15
 8001904:	ee17 0a90 	vmov	r0, s15
 8001908:	f7fe fdca 	bl	80004a0 <__aeabi_f2d>
 800190c:	4602      	mov	r2, r0
 800190e:	460b      	mov	r3, r1
 8001910:	e9d7 0102 	ldrd	r0, r1, [r7, #8]
 8001914:	f7fe fc64 	bl	80001e0 <__aeabi_dsub>
 8001918:	4602      	mov	r2, r0
 800191a:	460b      	mov	r3, r1
 800191c:	4610      	mov	r0, r2
 800191e:	4619      	mov	r1, r3
 8001920:	f04f 0200 	mov.w	r2, #0
 8001924:	4b3b      	ldr	r3, [pc, #236]	@ (8001a14 <UART_SetBaudRate+0x20c>)
 8001926:	f7fe fe13 	bl	8000550 <__aeabi_dmul>
 800192a:	4602      	mov	r2, r0
 800192c:	460b      	mov	r3, r1
 800192e:	4610      	mov	r0, r2
 8001930:	4619      	mov	r1, r3
 8001932:	f04f 0200 	mov.w	r2, #0
 8001936:	4b38      	ldr	r3, [pc, #224]	@ (8001a18 <UART_SetBaudRate+0x210>)
 8001938:	f7fe fc54 	bl	80001e4 <__adddf3>
 800193c:	4602      	mov	r2, r0
 800193e:	460b      	mov	r3, r1
 8001940:	4610      	mov	r0, r2
 8001942:	4619      	mov	r1, r3
 8001944:	f7ff f816 	bl	8000974 <__aeabi_d2uiz>
 8001948:	4603      	mov	r3, r0
 800194a:	757b      	strb	r3, [r7, #21]
		USART2->USART_BRR = Local_u16Mantissa<<4 | Local_u8Fraction;
 800194c:	8afb      	ldrh	r3, [r7, #22]
 800194e:	011a      	lsls	r2, r3, #4
 8001950:	7d7b      	ldrb	r3, [r7, #21]
 8001952:	431a      	orrs	r2, r3
 8001954:	4b31      	ldr	r3, [pc, #196]	@ (8001a1c <UART_SetBaudRate+0x214>)
 8001956:	609a      	str	r2, [r3, #8]
}
 8001958:	e04e      	b.n	80019f8 <UART_SetBaudRate+0x1f0>
	else if (UARTConfig->UART_Instance == USART6)
 800195a:	687b      	ldr	r3, [r7, #4]
 800195c:	681b      	ldr	r3, [r3, #0]
 800195e:	4a30      	ldr	r2, [pc, #192]	@ (8001a20 <UART_SetBaudRate+0x218>)
 8001960:	4293      	cmp	r3, r2
 8001962:	d149      	bne.n	80019f8 <UART_SetBaudRate+0x1f0>
			Local_f32USARTDIV = ((f32)APB2_CLK)/(16.0*UARTConfig->UART_BaudRate);
 8001964:	687b      	ldr	r3, [r7, #4]
 8001966:	685b      	ldr	r3, [r3, #4]
 8001968:	4618      	mov	r0, r3
 800196a:	f7fe fd77 	bl	800045c <__aeabi_ui2d>
 800196e:	f04f 0200 	mov.w	r2, #0
 8001972:	4b28      	ldr	r3, [pc, #160]	@ (8001a14 <UART_SetBaudRate+0x20c>)
 8001974:	f7fe fdec 	bl	8000550 <__aeabi_dmul>
 8001978:	4602      	mov	r2, r0
 800197a:	460b      	mov	r3, r1
 800197c:	a120      	add	r1, pc, #128	@ (adr r1, 8001a00 <UART_SetBaudRate+0x1f8>)
 800197e:	e9d1 0100 	ldrd	r0, r1, [r1]
 8001982:	f7fe ff0f 	bl	80007a4 <__aeabi_ddiv>
 8001986:	4602      	mov	r2, r0
 8001988:	460b      	mov	r3, r1
 800198a:	e9c7 2302 	strd	r2, r3, [r7, #8]
			Local_u16Mantissa = (u16)Local_f32USARTDIV;
 800198e:	e9d7 0102 	ldrd	r0, r1, [r7, #8]
 8001992:	f7fe ffef 	bl	8000974 <__aeabi_d2uiz>
 8001996:	4603      	mov	r3, r0
 8001998:	82fb      	strh	r3, [r7, #22]
			Local_u8Fraction = (u8)(((Local_f32USARTDIV - (f32)Local_u16Mantissa)*16)+0.5);
 800199a:	8afb      	ldrh	r3, [r7, #22]
 800199c:	ee07 3a90 	vmov	s15, r3
 80019a0:	eef8 7a67 	vcvt.f32.u32	s15, s15
 80019a4:	ee17 0a90 	vmov	r0, s15
 80019a8:	f7fe fd7a 	bl	80004a0 <__aeabi_f2d>
 80019ac:	4602      	mov	r2, r0
 80019ae:	460b      	mov	r3, r1
 80019b0:	e9d7 0102 	ldrd	r0, r1, [r7, #8]
 80019b4:	f7fe fc14 	bl	80001e0 <__aeabi_dsub>
 80019b8:	4602      	mov	r2, r0
 80019ba:	460b      	mov	r3, r1
 80019bc:	4610      	mov	r0, r2
 80019be:	4619      	mov	r1, r3
 80019c0:	f04f 0200 	mov.w	r2, #0
 80019c4:	4b13      	ldr	r3, [pc, #76]	@ (8001a14 <UART_SetBaudRate+0x20c>)
 80019c6:	f7fe fdc3 	bl	8000550 <__aeabi_dmul>
 80019ca:	4602      	mov	r2, r0
 80019cc:	460b      	mov	r3, r1
 80019ce:	4610      	mov	r0, r2
 80019d0:	4619      	mov	r1, r3
 80019d2:	f04f 0200 	mov.w	r2, #0
 80019d6:	4b10      	ldr	r3, [pc, #64]	@ (8001a18 <UART_SetBaudRate+0x210>)
 80019d8:	f7fe fc04 	bl	80001e4 <__adddf3>
 80019dc:	4602      	mov	r2, r0
 80019de:	460b      	mov	r3, r1
 80019e0:	4610      	mov	r0, r2
 80019e2:	4619      	mov	r1, r3
 80019e4:	f7fe ffc6 	bl	8000974 <__aeabi_d2uiz>
 80019e8:	4603      	mov	r3, r0
 80019ea:	757b      	strb	r3, [r7, #21]
			USART6->USART_BRR = Local_u16Mantissa<<4 | Local_u8Fraction;
 80019ec:	8afb      	ldrh	r3, [r7, #22]
 80019ee:	011a      	lsls	r2, r3, #4
 80019f0:	7d7b      	ldrb	r3, [r7, #21]
 80019f2:	431a      	orrs	r2, r3
 80019f4:	4b0a      	ldr	r3, [pc, #40]	@ (8001a20 <UART_SetBaudRate+0x218>)
 80019f6:	609a      	str	r2, [r3, #8]
}
 80019f8:	bf00      	nop
 80019fa:	3718      	adds	r7, #24
 80019fc:	46bd      	mov	sp, r7
 80019fe:	bd80      	pop	{r7, pc}
 8001a00:	00000000 	.word	0x00000000
 8001a04:	419406f4 	.word	0x419406f4
 8001a08:	00000000 	.word	0x00000000
 8001a0c:	418406f4 	.word	0x418406f4
 8001a10:	40011000 	.word	0x40011000
 8001a14:	40300000 	.word	0x40300000
 8001a18:	3fe00000 	.word	0x3fe00000
 8001a1c:	40004400 	.word	0x40004400
 8001a20:	40011400 	.word	0x40011400

08001a24 <UART_TC_INT_Init>:
static void UART_TC_INT_Init(const UART_InitTypeDef* UARTConfig)
{
 8001a24:	b580      	push	{r7, lr}
 8001a26:	b082      	sub	sp, #8
 8001a28:	af00      	add	r7, sp, #0
 8001a2a:	6078      	str	r0, [r7, #4]
	if(UARTConfig->UART_Instance == USART1)
 8001a2c:	687b      	ldr	r3, [r7, #4]
 8001a2e:	681b      	ldr	r3, [r3, #0]
 8001a30:	4a1c      	ldr	r2, [pc, #112]	@ (8001aa4 <UART_TC_INT_Init+0x80>)
 8001a32:	4293      	cmp	r3, r2
 8001a34:	d10d      	bne.n	8001a52 <UART_TC_INT_Init+0x2e>
	{
		USART1_TC_INT_Callback = UARTConfig->UART_TC_INT_Callback;
 8001a36:	687b      	ldr	r3, [r7, #4]
 8001a38:	699b      	ldr	r3, [r3, #24]
 8001a3a:	4a1b      	ldr	r2, [pc, #108]	@ (8001aa8 <UART_TC_INT_Init+0x84>)
 8001a3c:	6013      	str	r3, [r2, #0]
		SET_BIT(USART1->USART_CR1, USART_TCIE_BIT_POS);
 8001a3e:	4b19      	ldr	r3, [pc, #100]	@ (8001aa4 <UART_TC_INT_Init+0x80>)
 8001a40:	68db      	ldr	r3, [r3, #12]
 8001a42:	4a18      	ldr	r2, [pc, #96]	@ (8001aa4 <UART_TC_INT_Init+0x80>)
 8001a44:	f043 0340 	orr.w	r3, r3, #64	@ 0x40
 8001a48:	60d3      	str	r3, [r2, #12]
		MNVIC_voidEnableIRQ(USART1_IRQn);
 8001a4a:	2025      	movs	r0, #37	@ 0x25
 8001a4c:	f7ff fcdc 	bl	8001408 <MNVIC_voidEnableIRQ>
	{
		USART6_TC_INT_Callback = UARTConfig->UART_TC_INT_Callback;
		SET_BIT(USART6->USART_CR1, USART_TCIE_BIT_POS);
		MNVIC_voidEnableIRQ(USART6_IRQn);
	}
}
 8001a50:	e024      	b.n	8001a9c <UART_TC_INT_Init+0x78>
	else if (UARTConfig->UART_Instance == USART2)
 8001a52:	687b      	ldr	r3, [r7, #4]
 8001a54:	681b      	ldr	r3, [r3, #0]
 8001a56:	4a15      	ldr	r2, [pc, #84]	@ (8001aac <UART_TC_INT_Init+0x88>)
 8001a58:	4293      	cmp	r3, r2
 8001a5a:	d10d      	bne.n	8001a78 <UART_TC_INT_Init+0x54>
		USART2_TC_INT_Callback = UARTConfig->UART_TC_INT_Callback;
 8001a5c:	687b      	ldr	r3, [r7, #4]
 8001a5e:	699b      	ldr	r3, [r3, #24]
 8001a60:	4a13      	ldr	r2, [pc, #76]	@ (8001ab0 <UART_TC_INT_Init+0x8c>)
 8001a62:	6013      	str	r3, [r2, #0]
		SET_BIT(USART2->USART_CR1, USART_TCIE_BIT_POS);
 8001a64:	4b11      	ldr	r3, [pc, #68]	@ (8001aac <UART_TC_INT_Init+0x88>)
 8001a66:	68db      	ldr	r3, [r3, #12]
 8001a68:	4a10      	ldr	r2, [pc, #64]	@ (8001aac <UART_TC_INT_Init+0x88>)
 8001a6a:	f043 0340 	orr.w	r3, r3, #64	@ 0x40
 8001a6e:	60d3      	str	r3, [r2, #12]
		MNVIC_voidEnableIRQ(USART2_IRQn);
 8001a70:	2026      	movs	r0, #38	@ 0x26
 8001a72:	f7ff fcc9 	bl	8001408 <MNVIC_voidEnableIRQ>
}
 8001a76:	e011      	b.n	8001a9c <UART_TC_INT_Init+0x78>
	else if (UARTConfig->UART_Instance == USART6)
 8001a78:	687b      	ldr	r3, [r7, #4]
 8001a7a:	681b      	ldr	r3, [r3, #0]
 8001a7c:	4a0d      	ldr	r2, [pc, #52]	@ (8001ab4 <UART_TC_INT_Init+0x90>)
 8001a7e:	4293      	cmp	r3, r2
 8001a80:	d10c      	bne.n	8001a9c <UART_TC_INT_Init+0x78>
		USART6_TC_INT_Callback = UARTConfig->UART_TC_INT_Callback;
 8001a82:	687b      	ldr	r3, [r7, #4]
 8001a84:	699b      	ldr	r3, [r3, #24]
 8001a86:	4a0c      	ldr	r2, [pc, #48]	@ (8001ab8 <UART_TC_INT_Init+0x94>)
 8001a88:	6013      	str	r3, [r2, #0]
		SET_BIT(USART6->USART_CR1, USART_TCIE_BIT_POS);
 8001a8a:	4b0a      	ldr	r3, [pc, #40]	@ (8001ab4 <UART_TC_INT_Init+0x90>)
 8001a8c:	68db      	ldr	r3, [r3, #12]
 8001a8e:	4a09      	ldr	r2, [pc, #36]	@ (8001ab4 <UART_TC_INT_Init+0x90>)
 8001a90:	f043 0340 	orr.w	r3, r3, #64	@ 0x40
 8001a94:	60d3      	str	r3, [r2, #12]
		MNVIC_voidEnableIRQ(USART6_IRQn);
 8001a96:	2047      	movs	r0, #71	@ 0x47
 8001a98:	f7ff fcb6 	bl	8001408 <MNVIC_voidEnableIRQ>
}
 8001a9c:	bf00      	nop
 8001a9e:	3708      	adds	r7, #8
 8001aa0:	46bd      	mov	sp, r7
 8001aa2:	bd80      	pop	{r7, pc}
 8001aa4:	40011000 	.word	0x40011000
 8001aa8:	20000114 	.word	0x20000114
 8001aac:	40004400 	.word	0x40004400
 8001ab0:	20000118 	.word	0x20000118
 8001ab4:	40011400 	.word	0x40011400
 8001ab8:	2000011c 	.word	0x2000011c

08001abc <UART_RXNE_INT_Init>:
static void UART_RXNE_INT_Init(const UART_InitTypeDef* UARTConfig)
{
 8001abc:	b580      	push	{r7, lr}
 8001abe:	b082      	sub	sp, #8
 8001ac0:	af00      	add	r7, sp, #0
 8001ac2:	6078      	str	r0, [r7, #4]
	if(UARTConfig->UART_Instance == USART1)
 8001ac4:	687b      	ldr	r3, [r7, #4]
 8001ac6:	681b      	ldr	r3, [r3, #0]
 8001ac8:	4a1c      	ldr	r2, [pc, #112]	@ (8001b3c <UART_RXNE_INT_Init+0x80>)
 8001aca:	4293      	cmp	r3, r2
 8001acc:	d10d      	bne.n	8001aea <UART_RXNE_INT_Init+0x2e>
	{
		USART1_RXNE_INT_Callback = UARTConfig->UART_RXNE_INT_Callback;
 8001ace:	687b      	ldr	r3, [r7, #4]
 8001ad0:	6a1b      	ldr	r3, [r3, #32]
 8001ad2:	4a1b      	ldr	r2, [pc, #108]	@ (8001b40 <UART_RXNE_INT_Init+0x84>)
 8001ad4:	6013      	str	r3, [r2, #0]
		SET_BIT(USART1->USART_CR1, USART_RXNEIE_BIT_POS);
 8001ad6:	4b19      	ldr	r3, [pc, #100]	@ (8001b3c <UART_RXNE_INT_Init+0x80>)
 8001ad8:	68db      	ldr	r3, [r3, #12]
 8001ada:	4a18      	ldr	r2, [pc, #96]	@ (8001b3c <UART_RXNE_INT_Init+0x80>)
 8001adc:	f043 0320 	orr.w	r3, r3, #32
 8001ae0:	60d3      	str	r3, [r2, #12]
		MNVIC_voidEnableIRQ(USART1_IRQn);
 8001ae2:	2025      	movs	r0, #37	@ 0x25
 8001ae4:	f7ff fc90 	bl	8001408 <MNVIC_voidEnableIRQ>
	{
		USART6_RXNE_INT_Callback = UARTConfig->UART_RXNE_INT_Callback;
		SET_BIT(USART6->USART_CR1, USART_RXNEIE_BIT_POS);
		MNVIC_voidEnableIRQ(USART6_IRQn);
	}
}
 8001ae8:	e024      	b.n	8001b34 <UART_RXNE_INT_Init+0x78>
	else if (UARTConfig->UART_Instance == USART2)
 8001aea:	687b      	ldr	r3, [r7, #4]
 8001aec:	681b      	ldr	r3, [r3, #0]
 8001aee:	4a15      	ldr	r2, [pc, #84]	@ (8001b44 <UART_RXNE_INT_Init+0x88>)
 8001af0:	4293      	cmp	r3, r2
 8001af2:	d10d      	bne.n	8001b10 <UART_RXNE_INT_Init+0x54>
		USART2_RXNE_INT_Callback = UARTConfig->UART_RXNE_INT_Callback;
 8001af4:	687b      	ldr	r3, [r7, #4]
 8001af6:	6a1b      	ldr	r3, [r3, #32]
 8001af8:	4a13      	ldr	r2, [pc, #76]	@ (8001b48 <UART_RXNE_INT_Init+0x8c>)
 8001afa:	6013      	str	r3, [r2, #0]
		SET_BIT(USART2->USART_CR1, USART_RXNEIE_BIT_POS);
 8001afc:	4b11      	ldr	r3, [pc, #68]	@ (8001b44 <UART_RXNE_INT_Init+0x88>)
 8001afe:	68db      	ldr	r3, [r3, #12]
 8001b00:	4a10      	ldr	r2, [pc, #64]	@ (8001b44 <UART_RXNE_INT_Init+0x88>)
 8001b02:	f043 0320 	orr.w	r3, r3, #32
 8001b06:	60d3      	str	r3, [r2, #12]
		MNVIC_voidEnableIRQ(USART2_IRQn);
 8001b08:	2026      	movs	r0, #38	@ 0x26
 8001b0a:	f7ff fc7d 	bl	8001408 <MNVIC_voidEnableIRQ>
}
 8001b0e:	e011      	b.n	8001b34 <UART_RXNE_INT_Init+0x78>
	else if (UARTConfig->UART_Instance == USART6)
 8001b10:	687b      	ldr	r3, [r7, #4]
 8001b12:	681b      	ldr	r3, [r3, #0]
 8001b14:	4a0d      	ldr	r2, [pc, #52]	@ (8001b4c <UART_RXNE_INT_Init+0x90>)
 8001b16:	4293      	cmp	r3, r2
 8001b18:	d10c      	bne.n	8001b34 <UART_RXNE_INT_Init+0x78>
		USART6_RXNE_INT_Callback = UARTConfig->UART_RXNE_INT_Callback;
 8001b1a:	687b      	ldr	r3, [r7, #4]
 8001b1c:	6a1b      	ldr	r3, [r3, #32]
 8001b1e:	4a0c      	ldr	r2, [pc, #48]	@ (8001b50 <UART_RXNE_INT_Init+0x94>)
 8001b20:	6013      	str	r3, [r2, #0]
		SET_BIT(USART6->USART_CR1, USART_RXNEIE_BIT_POS);
 8001b22:	4b0a      	ldr	r3, [pc, #40]	@ (8001b4c <UART_RXNE_INT_Init+0x90>)
 8001b24:	68db      	ldr	r3, [r3, #12]
 8001b26:	4a09      	ldr	r2, [pc, #36]	@ (8001b4c <UART_RXNE_INT_Init+0x90>)
 8001b28:	f043 0320 	orr.w	r3, r3, #32
 8001b2c:	60d3      	str	r3, [r2, #12]
		MNVIC_voidEnableIRQ(USART6_IRQn);
 8001b2e:	2047      	movs	r0, #71	@ 0x47
 8001b30:	f7ff fc6a 	bl	8001408 <MNVIC_voidEnableIRQ>
}
 8001b34:	bf00      	nop
 8001b36:	3708      	adds	r7, #8
 8001b38:	46bd      	mov	sp, r7
 8001b3a:	bd80      	pop	{r7, pc}
 8001b3c:	40011000 	.word	0x40011000
 8001b40:	20000120 	.word	0x20000120
 8001b44:	40004400 	.word	0x40004400
 8001b48:	20000124 	.word	0x20000124
 8001b4c:	40011400 	.word	0x40011400
 8001b50:	20000128 	.word	0x20000128

08001b54 <USART_Timeout_Handler>:

static void USART_Timeout_Handler(void)
{
 8001b54:	b480      	push	{r7}
 8001b56:	af00      	add	r7, sp, #0
	USART_Timeout_Flag=USART_TIMEOUT;
 8001b58:	4b03      	ldr	r3, [pc, #12]	@ (8001b68 <USART_Timeout_Handler+0x14>)
 8001b5a:	2201      	movs	r2, #1
 8001b5c:	701a      	strb	r2, [r3, #0]
}
 8001b5e:	bf00      	nop
 8001b60:	46bd      	mov	sp, r7
 8001b62:	f85d 7b04 	ldr.w	r7, [sp], #4
 8001b66:	4770      	bx	lr
 8001b68:	2000012c 	.word	0x2000012c

08001b6c <UART_voidInit>:

/**********************************************************************************************************************
 *  GLOBAL FUNCTIONS
 *********************************************************************************************************************/
void UART_voidInit(const UART_InitTypeDef* UARTConfig)
{
 8001b6c:	b580      	push	{r7, lr}
 8001b6e:	b082      	sub	sp, #8
 8001b70:	af00      	add	r7, sp, #0
 8001b72:	6078      	str	r0, [r7, #4]
 /* Enable UART Clock */
	UART_ClockEnable(UARTConfig);
 8001b74:	6878      	ldr	r0, [r7, #4]
 8001b76:	f7ff fdb9 	bl	80016ec <UART_ClockEnable>

  /* UART GPIO Config */
   UART_voidGPIOConfig(UARTConfig);
 8001b7a:	6878      	ldr	r0, [r7, #4]
 8001b7c:	f7ff fde2 	bl	8001744 <UART_voidGPIOConfig>

 /* Deinit UART */
	UARTConfig->UART_Instance->USART_CR1 =0x00000000U;
 8001b80:	687b      	ldr	r3, [r7, #4]
 8001b82:	681b      	ldr	r3, [r3, #0]
 8001b84:	2200      	movs	r2, #0
 8001b86:	60da      	str	r2, [r3, #12]
	UARTConfig->UART_Instance->USART_CR2 =0x00000000U;
 8001b88:	687b      	ldr	r3, [r7, #4]
 8001b8a:	681b      	ldr	r3, [r3, #0]
 8001b8c:	2200      	movs	r2, #0
 8001b8e:	611a      	str	r2, [r3, #16]

/* Set USART Datawidth and Parity */
	UARTConfig->UART_Instance->USART_CR1 = UARTConfig->UART_DataWidth | UARTConfig->UART_Parity;
 8001b90:	687b      	ldr	r3, [r7, #4]
 8001b92:	6899      	ldr	r1, [r3, #8]
 8001b94:	687b      	ldr	r3, [r7, #4]
 8001b96:	691a      	ldr	r2, [r3, #16]
 8001b98:	687b      	ldr	r3, [r7, #4]
 8001b9a:	681b      	ldr	r3, [r3, #0]
 8001b9c:	430a      	orrs	r2, r1
 8001b9e:	60da      	str	r2, [r3, #12]

/* Set USART Stop Bits */
	UARTConfig->UART_Instance->USART_CR2 = UARTConfig->UART_StopBits;
 8001ba0:	687b      	ldr	r3, [r7, #4]
 8001ba2:	681b      	ldr	r3, [r3, #0]
 8001ba4:	687a      	ldr	r2, [r7, #4]
 8001ba6:	68d2      	ldr	r2, [r2, #12]
 8001ba8:	611a      	str	r2, [r3, #16]

/* Set USART Baudrate */
	UART_SetBaudRate(UARTConfig);
 8001baa:	6878      	ldr	r0, [r7, #4]
 8001bac:	f7ff fe2c 	bl	8001808 <UART_SetBaudRate>
/* Config USART TC interrupt */
	if(UARTConfig->UART_TCIE == INTERRUPT_ENABLED)
 8001bb0:	687b      	ldr	r3, [r7, #4]
 8001bb2:	695b      	ldr	r3, [r3, #20]
 8001bb4:	2b01      	cmp	r3, #1
 8001bb6:	d102      	bne.n	8001bbe <UART_voidInit+0x52>
	{
		UART_TC_INT_Init(UARTConfig);
 8001bb8:	6878      	ldr	r0, [r7, #4]
 8001bba:	f7ff ff33 	bl	8001a24 <UART_TC_INT_Init>
	}
/* Config USART RXNE interrupt */
	if(UARTConfig->UART_RXNEIE == INTERRUPT_ENABLED)
 8001bbe:	687b      	ldr	r3, [r7, #4]
 8001bc0:	69db      	ldr	r3, [r3, #28]
 8001bc2:	2b01      	cmp	r3, #1
 8001bc4:	d102      	bne.n	8001bcc <UART_voidInit+0x60>
	{
		UART_RXNE_INT_Init(UARTConfig);
 8001bc6:	6878      	ldr	r0, [r7, #4]
 8001bc8:	f7ff ff78 	bl	8001abc <UART_RXNE_INT_Init>
	}
 /* Enable USART TX and RX */
	UARTConfig->UART_Instance->USART_CR1 |= ((1<< UART_TE_BIT_POS) |(1<< UART_RE_BIT_POS) | (1<< UART_UE_BIT_POS));
 8001bcc:	687b      	ldr	r3, [r7, #4]
 8001bce:	681b      	ldr	r3, [r3, #0]
 8001bd0:	68db      	ldr	r3, [r3, #12]
 8001bd2:	687a      	ldr	r2, [r7, #4]
 8001bd4:	6812      	ldr	r2, [r2, #0]
 8001bd6:	f443 5300 	orr.w	r3, r3, #8192	@ 0x2000
 8001bda:	f043 030c 	orr.w	r3, r3, #12
 8001bde:	60d3      	str	r3, [r2, #12]
}
 8001be0:	bf00      	nop
 8001be2:	3708      	adds	r7, #8
 8001be4:	46bd      	mov	sp, r7
 8001be6:	bd80      	pop	{r7, pc}

08001be8 <UART_TransmitByte>:
Std_ReturnType UART_TransmitByte(const UART_InitTypeDef* UARTConfig , u8 Copy_u8Data , u32 Copy_u32Timeout)
{
 8001be8:	b580      	push	{r7, lr}
 8001bea:	b086      	sub	sp, #24
 8001bec:	af00      	add	r7, sp, #0
 8001bee:	60f8      	str	r0, [r7, #12]
 8001bf0:	460b      	mov	r3, r1
 8001bf2:	607a      	str	r2, [r7, #4]
 8001bf4:	72fb      	strb	r3, [r7, #11]
	Std_ReturnType Local_u8ErrorState = STD_OK;
 8001bf6:	2300      	movs	r3, #0
 8001bf8:	75fb      	strb	r3, [r7, #23]
    MSysTick_void_ASYNC_Delay_ms(Copy_u32Timeout, USART_Timeout_Handler);
 8001bfa:	4916      	ldr	r1, [pc, #88]	@ (8001c54 <UART_TransmitByte+0x6c>)
 8001bfc:	6878      	ldr	r0, [r7, #4]
 8001bfe:	f7ff fd2b 	bl	8001658 <MSysTick_void_ASYNC_Delay_ms>
    UARTConfig->UART_Instance->USART_DR = Copy_u8Data;
 8001c02:	68fb      	ldr	r3, [r7, #12]
 8001c04:	681b      	ldr	r3, [r3, #0]
 8001c06:	7afa      	ldrb	r2, [r7, #11]
 8001c08:	605a      	str	r2, [r3, #4]
    while(((GET_BIT(UARTConfig->UART_Instance->USART_SR,USART_TC_BIT_POS)) == USART_TRANSFER_NOT_COMPLETED) &&
 8001c0a:	bf00      	nop
 8001c0c:	68fb      	ldr	r3, [r7, #12]
 8001c0e:	681b      	ldr	r3, [r3, #0]
 8001c10:	681b      	ldr	r3, [r3, #0]
 8001c12:	f003 0340 	and.w	r3, r3, #64	@ 0x40
 8001c16:	2b00      	cmp	r3, #0
 8001c18:	d103      	bne.n	8001c22 <UART_TransmitByte+0x3a>
    		(USART_Timeout_Flag != USART_TIMEOUT)){};
 8001c1a:	4b0f      	ldr	r3, [pc, #60]	@ (8001c58 <UART_TransmitByte+0x70>)
 8001c1c:	781b      	ldrb	r3, [r3, #0]
    while(((GET_BIT(UARTConfig->UART_Instance->USART_SR,USART_TC_BIT_POS)) == USART_TRANSFER_NOT_COMPLETED) &&
 8001c1e:	2b01      	cmp	r3, #1
 8001c20:	d1f4      	bne.n	8001c0c <UART_TransmitByte+0x24>
    if(USART_Timeout_Flag == USART_TIMEOUT)
 8001c22:	4b0d      	ldr	r3, [pc, #52]	@ (8001c58 <UART_TransmitByte+0x70>)
 8001c24:	781b      	ldrb	r3, [r3, #0]
 8001c26:	2b01      	cmp	r3, #1
 8001c28:	d105      	bne.n	8001c36 <UART_TransmitByte+0x4e>
    {
    	Local_u8ErrorState = STD_TIMEOUT;
 8001c2a:	2302      	movs	r3, #2
 8001c2c:	75fb      	strb	r3, [r7, #23]
    	USART_Timeout_Flag = USART_NO_TIMEOUT;
 8001c2e:	4b0a      	ldr	r3, [pc, #40]	@ (8001c58 <UART_TransmitByte+0x70>)
 8001c30:	2200      	movs	r2, #0
 8001c32:	701a      	strb	r2, [r3, #0]
 8001c34:	e009      	b.n	8001c4a <UART_TransmitByte+0x62>
    }
    else
    {
    	CLR_BIT(UARTConfig->UART_Instance->USART_SR,USART_TC_BIT_POS);
 8001c36:	68fb      	ldr	r3, [r7, #12]
 8001c38:	681b      	ldr	r3, [r3, #0]
 8001c3a:	681a      	ldr	r2, [r3, #0]
 8001c3c:	68fb      	ldr	r3, [r7, #12]
 8001c3e:	681b      	ldr	r3, [r3, #0]
 8001c40:	f022 0240 	bic.w	r2, r2, #64	@ 0x40
 8001c44:	601a      	str	r2, [r3, #0]
    	MSysTick_voidDeInit();
 8001c46:	f7ff fcd3 	bl	80015f0 <MSysTick_voidDeInit>
		}
	return Local_u8ErrorState;
 8001c4a:	7dfb      	ldrb	r3, [r7, #23]
}
 8001c4c:	4618      	mov	r0, r3
 8001c4e:	3718      	adds	r7, #24
 8001c50:	46bd      	mov	sp, r7
 8001c52:	bd80      	pop	{r7, pc}
 8001c54:	08001b55 	.word	0x08001b55
 8001c58:	2000012c 	.word	0x2000012c

08001c5c <UART_voidTransmit>:
Std_ReturnType UART_voidTransmit(const UART_InitTypeDef* UARTConfig , u8* Ptr_u8Data , u16 Copy_u16DataSize , u32 Copy_u32Timeout)
{
 8001c5c:	b580      	push	{r7, lr}
 8001c5e:	b086      	sub	sp, #24
 8001c60:	af00      	add	r7, sp, #0
 8001c62:	60f8      	str	r0, [r7, #12]
 8001c64:	60b9      	str	r1, [r7, #8]
 8001c66:	603b      	str	r3, [r7, #0]
 8001c68:	4613      	mov	r3, r2
 8001c6a:	80fb      	strh	r3, [r7, #6]
	Std_ReturnType Local_u8ErrorState = STD_OK;
 8001c6c:	2300      	movs	r3, #0
 8001c6e:	75fb      	strb	r3, [r7, #23]
	u16 Local_u16Counter = 0;
 8001c70:	2300      	movs	r3, #0
 8001c72:	82bb      	strh	r3, [r7, #20]
	if((NULL == UARTConfig) || (NULL == Ptr_u8Data))
 8001c74:	68fb      	ldr	r3, [r7, #12]
 8001c76:	2b00      	cmp	r3, #0
 8001c78:	d002      	beq.n	8001c80 <UART_voidTransmit+0x24>
 8001c7a:	68bb      	ldr	r3, [r7, #8]
 8001c7c:	2b00      	cmp	r3, #0
 8001c7e:	d102      	bne.n	8001c86 <UART_voidTransmit+0x2a>
	{
		Local_u8ErrorState = STD_NOK;
 8001c80:	2301      	movs	r3, #1
 8001c82:	75fb      	strb	r3, [r7, #23]
 8001c84:	e019      	b.n	8001cba <UART_voidTransmit+0x5e>
	}
	else
	{
		for(Local_u16Counter = 0 ; Local_u16Counter < Copy_u16DataSize ; Local_u16Counter++)
 8001c86:	2300      	movs	r3, #0
 8001c88:	82bb      	strh	r3, [r7, #20]
 8001c8a:	e010      	b.n	8001cae <UART_voidTransmit+0x52>
		{
			Local_u8ErrorState = UART_TransmitByte(UARTConfig, Ptr_u8Data[Local_u16Counter], Copy_u32Timeout);
 8001c8c:	8abb      	ldrh	r3, [r7, #20]
 8001c8e:	68ba      	ldr	r2, [r7, #8]
 8001c90:	4413      	add	r3, r2
 8001c92:	781b      	ldrb	r3, [r3, #0]
 8001c94:	683a      	ldr	r2, [r7, #0]
 8001c96:	4619      	mov	r1, r3
 8001c98:	68f8      	ldr	r0, [r7, #12]
 8001c9a:	f7ff ffa5 	bl	8001be8 <UART_TransmitByte>
 8001c9e:	4603      	mov	r3, r0
 8001ca0:	75fb      	strb	r3, [r7, #23]
			if(Local_u8ErrorState != STD_OK)
 8001ca2:	7dfb      	ldrb	r3, [r7, #23]
 8001ca4:	2b00      	cmp	r3, #0
 8001ca6:	d107      	bne.n	8001cb8 <UART_voidTransmit+0x5c>
		for(Local_u16Counter = 0 ; Local_u16Counter < Copy_u16DataSize ; Local_u16Counter++)
 8001ca8:	8abb      	ldrh	r3, [r7, #20]
 8001caa:	3301      	adds	r3, #1
 8001cac:	82bb      	strh	r3, [r7, #20]
 8001cae:	8aba      	ldrh	r2, [r7, #20]
 8001cb0:	88fb      	ldrh	r3, [r7, #6]
 8001cb2:	429a      	cmp	r2, r3
 8001cb4:	d3ea      	bcc.n	8001c8c <UART_voidTransmit+0x30>
 8001cb6:	e000      	b.n	8001cba <UART_voidTransmit+0x5e>
			{
				break;
 8001cb8:	bf00      	nop
			}
		}
	}
	return Local_u8ErrorState;
 8001cba:	7dfb      	ldrb	r3, [r7, #23]
}
 8001cbc:	4618      	mov	r0, r3
 8001cbe:	3718      	adds	r7, #24
 8001cc0:	46bd      	mov	sp, r7
 8001cc2:	bd80      	pop	{r7, pc}

08001cc4 <UART_ReceiveByte>:
Std_ReturnType UART_ReceiveByte(const UART_InitTypeDef* UARTConfig , u8* ptr_u8Data , u32 Copy_u32Timeout)
{
 8001cc4:	b580      	push	{r7, lr}
 8001cc6:	b086      	sub	sp, #24
 8001cc8:	af00      	add	r7, sp, #0
 8001cca:	60f8      	str	r0, [r7, #12]
 8001ccc:	60b9      	str	r1, [r7, #8]
 8001cce:	607a      	str	r2, [r7, #4]
	Std_ReturnType Local_u8ErrorState = STD_OK;
 8001cd0:	2300      	movs	r3, #0
 8001cd2:	75fb      	strb	r3, [r7, #23]
    MSysTick_void_ASYNC_Delay_ms(Copy_u32Timeout, USART_Timeout_Handler);
 8001cd4:	4917      	ldr	r1, [pc, #92]	@ (8001d34 <UART_ReceiveByte+0x70>)
 8001cd6:	6878      	ldr	r0, [r7, #4]
 8001cd8:	f7ff fcbe 	bl	8001658 <MSysTick_void_ASYNC_Delay_ms>
    while((GET_BIT(UARTConfig->UART_Instance->USART_SR,USART_RXNE_BIT_POS) == USART_RECIEVE_BUFFER_EMPTY)
 8001cdc:	bf00      	nop
 8001cde:	68fb      	ldr	r3, [r7, #12]
 8001ce0:	681b      	ldr	r3, [r3, #0]
 8001ce2:	681b      	ldr	r3, [r3, #0]
 8001ce4:	f003 0320 	and.w	r3, r3, #32
    		&& (USART_Timeout_Flag != USART_TIMEOUT)){};
 8001ce8:	2b00      	cmp	r3, #0
 8001cea:	d103      	bne.n	8001cf4 <UART_ReceiveByte+0x30>
 8001cec:	4b12      	ldr	r3, [pc, #72]	@ (8001d38 <UART_ReceiveByte+0x74>)
 8001cee:	781b      	ldrb	r3, [r3, #0]
 8001cf0:	2b01      	cmp	r3, #1
 8001cf2:	d1f4      	bne.n	8001cde <UART_ReceiveByte+0x1a>
		if(USART_Timeout_Flag == USART_TIMEOUT)
 8001cf4:	4b10      	ldr	r3, [pc, #64]	@ (8001d38 <UART_ReceiveByte+0x74>)
 8001cf6:	781b      	ldrb	r3, [r3, #0]
 8001cf8:	2b01      	cmp	r3, #1
 8001cfa:	d105      	bne.n	8001d08 <UART_ReceiveByte+0x44>
		{
			Local_u8ErrorState = STD_TIMEOUT;
 8001cfc:	2302      	movs	r3, #2
 8001cfe:	75fb      	strb	r3, [r7, #23]
			USART_Timeout_Flag = USART_NO_TIMEOUT;
 8001d00:	4b0d      	ldr	r3, [pc, #52]	@ (8001d38 <UART_ReceiveByte+0x74>)
 8001d02:	2200      	movs	r2, #0
 8001d04:	701a      	strb	r2, [r3, #0]
 8001d06:	e00f      	b.n	8001d28 <UART_ReceiveByte+0x64>
		}
		else
		{
			CLR_BIT(UARTConfig->UART_Instance->USART_SR,USART_RXNE_BIT_POS);
 8001d08:	68fb      	ldr	r3, [r7, #12]
 8001d0a:	681b      	ldr	r3, [r3, #0]
 8001d0c:	681a      	ldr	r2, [r3, #0]
 8001d0e:	68fb      	ldr	r3, [r7, #12]
 8001d10:	681b      	ldr	r3, [r3, #0]
 8001d12:	f022 0220 	bic.w	r2, r2, #32
 8001d16:	601a      	str	r2, [r3, #0]
			*ptr_u8Data = UARTConfig->UART_Instance->USART_DR;
 8001d18:	68fb      	ldr	r3, [r7, #12]
 8001d1a:	681b      	ldr	r3, [r3, #0]
 8001d1c:	685b      	ldr	r3, [r3, #4]
 8001d1e:	b2da      	uxtb	r2, r3
 8001d20:	68bb      	ldr	r3, [r7, #8]
 8001d22:	701a      	strb	r2, [r3, #0]
			MSysTick_voidDeInit();
 8001d24:	f7ff fc64 	bl	80015f0 <MSysTick_voidDeInit>
		}
	return Local_u8ErrorState;
 8001d28:	7dfb      	ldrb	r3, [r7, #23]
}
 8001d2a:	4618      	mov	r0, r3
 8001d2c:	3718      	adds	r7, #24
 8001d2e:	46bd      	mov	sp, r7
 8001d30:	bd80      	pop	{r7, pc}
 8001d32:	bf00      	nop
 8001d34:	08001b55 	.word	0x08001b55
 8001d38:	2000012c 	.word	0x2000012c

08001d3c <UART_voidReceive>:
Std_ReturnType UART_voidReceive(const UART_InitTypeDef* UARTConfig , u8* Ptr_u8Data , u16 Copy_u16DataSize , u32 Copy_u32Timeout)
{
 8001d3c:	b580      	push	{r7, lr}
 8001d3e:	b086      	sub	sp, #24
 8001d40:	af00      	add	r7, sp, #0
 8001d42:	60f8      	str	r0, [r7, #12]
 8001d44:	60b9      	str	r1, [r7, #8]
 8001d46:	603b      	str	r3, [r7, #0]
 8001d48:	4613      	mov	r3, r2
 8001d4a:	80fb      	strh	r3, [r7, #6]
	Std_ReturnType Local_u8ErrorState = STD_OK;
 8001d4c:	2300      	movs	r3, #0
 8001d4e:	75fb      	strb	r3, [r7, #23]
	u16 Local_u16Counter = 0;
 8001d50:	2300      	movs	r3, #0
 8001d52:	82bb      	strh	r3, [r7, #20]
	if((NULL == UARTConfig) || (NULL == Ptr_u8Data))
 8001d54:	68fb      	ldr	r3, [r7, #12]
 8001d56:	2b00      	cmp	r3, #0
 8001d58:	d002      	beq.n	8001d60 <UART_voidReceive+0x24>
 8001d5a:	68bb      	ldr	r3, [r7, #8]
 8001d5c:	2b00      	cmp	r3, #0
 8001d5e:	d102      	bne.n	8001d66 <UART_voidReceive+0x2a>
	{
		Local_u8ErrorState = STD_NOK;
 8001d60:	2301      	movs	r3, #1
 8001d62:	75fb      	strb	r3, [r7, #23]
 8001d64:	e018      	b.n	8001d98 <UART_voidReceive+0x5c>
	}
	else
	{
		for(Local_u16Counter = 0 ; Local_u16Counter < Copy_u16DataSize ; Local_u16Counter++)
 8001d66:	2300      	movs	r3, #0
 8001d68:	82bb      	strh	r3, [r7, #20]
 8001d6a:	e00f      	b.n	8001d8c <UART_voidReceive+0x50>
		{
			Local_u8ErrorState = UART_ReceiveByte(UARTConfig, &Ptr_u8Data[Local_u16Counter], Copy_u32Timeout);
 8001d6c:	8abb      	ldrh	r3, [r7, #20]
 8001d6e:	68ba      	ldr	r2, [r7, #8]
 8001d70:	4413      	add	r3, r2
 8001d72:	683a      	ldr	r2, [r7, #0]
 8001d74:	4619      	mov	r1, r3
 8001d76:	68f8      	ldr	r0, [r7, #12]
 8001d78:	f7ff ffa4 	bl	8001cc4 <UART_ReceiveByte>
 8001d7c:	4603      	mov	r3, r0
 8001d7e:	75fb      	strb	r3, [r7, #23]
			if(Local_u8ErrorState != STD_OK)
 8001d80:	7dfb      	ldrb	r3, [r7, #23]
 8001d82:	2b00      	cmp	r3, #0
 8001d84:	d107      	bne.n	8001d96 <UART_voidReceive+0x5a>
		for(Local_u16Counter = 0 ; Local_u16Counter < Copy_u16DataSize ; Local_u16Counter++)
 8001d86:	8abb      	ldrh	r3, [r7, #20]
 8001d88:	3301      	adds	r3, #1
 8001d8a:	82bb      	strh	r3, [r7, #20]
 8001d8c:	8aba      	ldrh	r2, [r7, #20]
 8001d8e:	88fb      	ldrh	r3, [r7, #6]
 8001d90:	429a      	cmp	r2, r3
 8001d92:	d3eb      	bcc.n	8001d6c <UART_voidReceive+0x30>
 8001d94:	e000      	b.n	8001d98 <UART_voidReceive+0x5c>
			{
				break;
 8001d96:	bf00      	nop
			}
		}
	}
	return Local_u8ErrorState;
 8001d98:	7dfb      	ldrb	r3, [r7, #23]
}
 8001d9a:	4618      	mov	r0, r3
 8001d9c:	3718      	adds	r7, #24
 8001d9e:	46bd      	mov	sp, r7
 8001da0:	bd80      	pop	{r7, pc}
	...

08001da4 <USART1_IRQHandler>:

/******************** USART ISRs *******************************************/
void USART1_IRQHandler(void)
{
 8001da4:	b580      	push	{r7, lr}
 8001da6:	af00      	add	r7, sp, #0
	if(GET_UART1_TC_FLAG() == INTERRUPT_ACTIVE)
 8001da8:	4b13      	ldr	r3, [pc, #76]	@ (8001df8 <USART1_IRQHandler+0x54>)
 8001daa:	681b      	ldr	r3, [r3, #0]
 8001dac:	f003 0340 	and.w	r3, r3, #64	@ 0x40
 8001db0:	2b40      	cmp	r3, #64	@ 0x40
 8001db2:	d10c      	bne.n	8001dce <USART1_IRQHandler+0x2a>
	{
		CLEAR_UART1_TC_FLAG();
 8001db4:	4b10      	ldr	r3, [pc, #64]	@ (8001df8 <USART1_IRQHandler+0x54>)
 8001db6:	681b      	ldr	r3, [r3, #0]
 8001db8:	4a0f      	ldr	r2, [pc, #60]	@ (8001df8 <USART1_IRQHandler+0x54>)
 8001dba:	f023 0340 	bic.w	r3, r3, #64	@ 0x40
 8001dbe:	6013      	str	r3, [r2, #0]
		if(USART1_TC_INT_Callback != NULL)
 8001dc0:	4b0e      	ldr	r3, [pc, #56]	@ (8001dfc <USART1_IRQHandler+0x58>)
 8001dc2:	681b      	ldr	r3, [r3, #0]
 8001dc4:	2b00      	cmp	r3, #0
 8001dc6:	d002      	beq.n	8001dce <USART1_IRQHandler+0x2a>
		{
			USART1_TC_INT_Callback();
 8001dc8:	4b0c      	ldr	r3, [pc, #48]	@ (8001dfc <USART1_IRQHandler+0x58>)
 8001dca:	681b      	ldr	r3, [r3, #0]
 8001dcc:	4798      	blx	r3
		}
	}

	if(GET_UART1_RXNE_FLAG() == INTERRUPT_ACTIVE)
 8001dce:	4b0a      	ldr	r3, [pc, #40]	@ (8001df8 <USART1_IRQHandler+0x54>)
 8001dd0:	681b      	ldr	r3, [r3, #0]
 8001dd2:	f003 0320 	and.w	r3, r3, #32
 8001dd6:	2b20      	cmp	r3, #32
 8001dd8:	d10c      	bne.n	8001df4 <USART1_IRQHandler+0x50>
	{
		CLEAR_UART1_RXNE_FLAG();
 8001dda:	4b07      	ldr	r3, [pc, #28]	@ (8001df8 <USART1_IRQHandler+0x54>)
 8001ddc:	681b      	ldr	r3, [r3, #0]
 8001dde:	4a06      	ldr	r2, [pc, #24]	@ (8001df8 <USART1_IRQHandler+0x54>)
 8001de0:	f023 0320 	bic.w	r3, r3, #32
 8001de4:	6013      	str	r3, [r2, #0]
		if(USART1_RXNE_INT_Callback != NULL)
 8001de6:	4b06      	ldr	r3, [pc, #24]	@ (8001e00 <USART1_IRQHandler+0x5c>)
 8001de8:	681b      	ldr	r3, [r3, #0]
 8001dea:	2b00      	cmp	r3, #0
 8001dec:	d002      	beq.n	8001df4 <USART1_IRQHandler+0x50>
		{
			USART1_RXNE_INT_Callback();
 8001dee:	4b04      	ldr	r3, [pc, #16]	@ (8001e00 <USART1_IRQHandler+0x5c>)
 8001df0:	681b      	ldr	r3, [r3, #0]
 8001df2:	4798      	blx	r3
		}
	}
}
 8001df4:	bf00      	nop
 8001df6:	bd80      	pop	{r7, pc}
 8001df8:	40011000 	.word	0x40011000
 8001dfc:	20000114 	.word	0x20000114
 8001e00:	20000120 	.word	0x20000120

08001e04 <USART2_IRQHandler>:

void USART2_IRQHandler(void)
{
 8001e04:	b580      	push	{r7, lr}
 8001e06:	af00      	add	r7, sp, #0
	if(GET_UART2_TC_FLAG() == INTERRUPT_ACTIVE)
 8001e08:	4b13      	ldr	r3, [pc, #76]	@ (8001e58 <USART2_IRQHandler+0x54>)
 8001e0a:	681b      	ldr	r3, [r3, #0]
 8001e0c:	f003 0340 	and.w	r3, r3, #64	@ 0x40
 8001e10:	2b40      	cmp	r3, #64	@ 0x40
 8001e12:	d10c      	bne.n	8001e2e <USART2_IRQHandler+0x2a>
	{
		CLEAR_UART2_TC_FLAG();
 8001e14:	4b10      	ldr	r3, [pc, #64]	@ (8001e58 <USART2_IRQHandler+0x54>)
 8001e16:	681b      	ldr	r3, [r3, #0]
 8001e18:	4a0f      	ldr	r2, [pc, #60]	@ (8001e58 <USART2_IRQHandler+0x54>)
 8001e1a:	f023 0340 	bic.w	r3, r3, #64	@ 0x40
 8001e1e:	6013      	str	r3, [r2, #0]
		if(USART2_TC_INT_Callback != NULL)
 8001e20:	4b0e      	ldr	r3, [pc, #56]	@ (8001e5c <USART2_IRQHandler+0x58>)
 8001e22:	681b      	ldr	r3, [r3, #0]
 8001e24:	2b00      	cmp	r3, #0
 8001e26:	d002      	beq.n	8001e2e <USART2_IRQHandler+0x2a>
		{
			USART2_TC_INT_Callback();
 8001e28:	4b0c      	ldr	r3, [pc, #48]	@ (8001e5c <USART2_IRQHandler+0x58>)
 8001e2a:	681b      	ldr	r3, [r3, #0]
 8001e2c:	4798      	blx	r3
		}
	}
	if(GET_UART2_RXNE_FLAG() == INTERRUPT_ACTIVE)
 8001e2e:	4b0a      	ldr	r3, [pc, #40]	@ (8001e58 <USART2_IRQHandler+0x54>)
 8001e30:	681b      	ldr	r3, [r3, #0]
 8001e32:	f003 0320 	and.w	r3, r3, #32
 8001e36:	2b20      	cmp	r3, #32
 8001e38:	d10c      	bne.n	8001e54 <USART2_IRQHandler+0x50>
	{
		CLEAR_UART2_RXNE_FLAG();
 8001e3a:	4b07      	ldr	r3, [pc, #28]	@ (8001e58 <USART2_IRQHandler+0x54>)
 8001e3c:	681b      	ldr	r3, [r3, #0]
 8001e3e:	4a06      	ldr	r2, [pc, #24]	@ (8001e58 <USART2_IRQHandler+0x54>)
 8001e40:	f023 0320 	bic.w	r3, r3, #32
 8001e44:	6013      	str	r3, [r2, #0]
		if(USART2_RXNE_INT_Callback != NULL)
 8001e46:	4b06      	ldr	r3, [pc, #24]	@ (8001e60 <USART2_IRQHandler+0x5c>)
 8001e48:	681b      	ldr	r3, [r3, #0]
 8001e4a:	2b00      	cmp	r3, #0
 8001e4c:	d002      	beq.n	8001e54 <USART2_IRQHandler+0x50>
		{
			USART2_RXNE_INT_Callback();
 8001e4e:	4b04      	ldr	r3, [pc, #16]	@ (8001e60 <USART2_IRQHandler+0x5c>)
 8001e50:	681b      	ldr	r3, [r3, #0]
 8001e52:	4798      	blx	r3
		}
	}
}
 8001e54:	bf00      	nop
 8001e56:	bd80      	pop	{r7, pc}
 8001e58:	40004400 	.word	0x40004400
 8001e5c:	20000118 	.word	0x20000118
 8001e60:	20000124 	.word	0x20000124

08001e64 <USART6_IRQHandler>:
void USART6_IRQHandler(void)
{
 8001e64:	b580      	push	{r7, lr}
 8001e66:	af00      	add	r7, sp, #0
	if(GET_UART6_TC_FLAG() == INTERRUPT_ACTIVE)
 8001e68:	4b13      	ldr	r3, [pc, #76]	@ (8001eb8 <USART6_IRQHandler+0x54>)
 8001e6a:	681b      	ldr	r3, [r3, #0]
 8001e6c:	f003 0340 	and.w	r3, r3, #64	@ 0x40
 8001e70:	2b40      	cmp	r3, #64	@ 0x40
 8001e72:	d10c      	bne.n	8001e8e <USART6_IRQHandler+0x2a>
	{
		CLEAR_UART6_TC_FLAG();
 8001e74:	4b10      	ldr	r3, [pc, #64]	@ (8001eb8 <USART6_IRQHandler+0x54>)
 8001e76:	681b      	ldr	r3, [r3, #0]
 8001e78:	4a0f      	ldr	r2, [pc, #60]	@ (8001eb8 <USART6_IRQHandler+0x54>)
 8001e7a:	f023 0340 	bic.w	r3, r3, #64	@ 0x40
 8001e7e:	6013      	str	r3, [r2, #0]
		if(USART6_TC_INT_Callback != NULL)
 8001e80:	4b0e      	ldr	r3, [pc, #56]	@ (8001ebc <USART6_IRQHandler+0x58>)
 8001e82:	681b      	ldr	r3, [r3, #0]
 8001e84:	2b00      	cmp	r3, #0
 8001e86:	d002      	beq.n	8001e8e <USART6_IRQHandler+0x2a>
		{
			USART6_TC_INT_Callback();
 8001e88:	4b0c      	ldr	r3, [pc, #48]	@ (8001ebc <USART6_IRQHandler+0x58>)
 8001e8a:	681b      	ldr	r3, [r3, #0]
 8001e8c:	4798      	blx	r3
		}
	}
	if(GET_UART6_RXNE_FLAG() == INTERRUPT_ACTIVE)
 8001e8e:	4b0a      	ldr	r3, [pc, #40]	@ (8001eb8 <USART6_IRQHandler+0x54>)
 8001e90:	681b      	ldr	r3, [r3, #0]
 8001e92:	f003 0320 	and.w	r3, r3, #32
 8001e96:	2b20      	cmp	r3, #32
 8001e98:	d10c      	bne.n	8001eb4 <USART6_IRQHandler+0x50>
	{
		CLEAR_UART6_RXNE_FLAG();
 8001e9a:	4b07      	ldr	r3, [pc, #28]	@ (8001eb8 <USART6_IRQHandler+0x54>)
 8001e9c:	681b      	ldr	r3, [r3, #0]
 8001e9e:	4a06      	ldr	r2, [pc, #24]	@ (8001eb8 <USART6_IRQHandler+0x54>)
 8001ea0:	f023 0320 	bic.w	r3, r3, #32
 8001ea4:	6013      	str	r3, [r2, #0]
		if(USART6_RXNE_INT_Callback != NULL)
 8001ea6:	4b06      	ldr	r3, [pc, #24]	@ (8001ec0 <USART6_IRQHandler+0x5c>)
 8001ea8:	681b      	ldr	r3, [r3, #0]
 8001eaa:	2b00      	cmp	r3, #0
 8001eac:	d002      	beq.n	8001eb4 <USART6_IRQHandler+0x50>
		{
			USART6_RXNE_INT_Callback();
 8001eae:	4b04      	ldr	r3, [pc, #16]	@ (8001ec0 <USART6_IRQHandler+0x5c>)
 8001eb0:	681b      	ldr	r3, [r3, #0]
 8001eb2:	4798      	blx	r3
		}
	}
}
 8001eb4:	bf00      	nop
 8001eb6:	bd80      	pop	{r7, pc}
 8001eb8:	40011400 	.word	0x40011400
 8001ebc:	2000011c 	.word	0x2000011c
 8001ec0:	20000128 	.word	0x20000128

08001ec4 <SystemInit>:

/**********************************************************************************************************************
 *  GLOBAL FUNCTIONS
 *********************************************************************************************************************/
void SystemInit(void)
{
 8001ec4:	b580      	push	{r7, lr}
 8001ec6:	af00      	add	r7, sp, #0
	RCC_voidInit();
 8001ec8:	f7ff fb2a 	bl	8001520 <RCC_voidInit>
	MSysTick_voidInit();
 8001ecc:	f7ff fb74 	bl	80015b8 <MSysTick_voidInit>
}
 8001ed0:	bf00      	nop
 8001ed2:	bd80      	pop	{r7, pc}

08001ed4 <Reset_Handler>:

  .section .text.Reset_Handler
  .weak Reset_Handler
  .type Reset_Handler, %function
Reset_Handler:
  ldr   r0, =_estack
 8001ed4:	480d      	ldr	r0, [pc, #52]	@ (8001f0c <LoopForever+0x2>)
  mov   sp, r0          /* set stack pointer */
 8001ed6:	4685      	mov	sp, r0
/* Call the clock system initialization function.*/
  bl  SystemInit
 8001ed8:	f7ff fff4 	bl	8001ec4 <SystemInit>

/* Copy the data segment initializers from flash to SRAM */
  ldr r0, =_sdata
 8001edc:	480c      	ldr	r0, [pc, #48]	@ (8001f10 <LoopForever+0x6>)
  ldr r1, =_edata
 8001ede:	490d      	ldr	r1, [pc, #52]	@ (8001f14 <LoopForever+0xa>)
  ldr r2, =_sidata
 8001ee0:	4a0d      	ldr	r2, [pc, #52]	@ (8001f18 <LoopForever+0xe>)
  movs r3, #0
 8001ee2:	2300      	movs	r3, #0
  b LoopCopyDataInit
 8001ee4:	e002      	b.n	8001eec <LoopCopyDataInit>

08001ee6 <CopyDataInit>:

CopyDataInit:
  ldr r4, [r2, r3]
 8001ee6:	58d4      	ldr	r4, [r2, r3]
  str r4, [r0, r3]
 8001ee8:	50c4      	str	r4, [r0, r3]
  adds r3, r3, #4
 8001eea:	3304      	adds	r3, #4

08001eec <LoopCopyDataInit>:

LoopCopyDataInit:
  adds r4, r0, r3
 8001eec:	18c4      	adds	r4, r0, r3
  cmp r4, r1
 8001eee:	428c      	cmp	r4, r1
  bcc CopyDataInit
 8001ef0:	d3f9      	bcc.n	8001ee6 <CopyDataInit>

/* Zero fill the bss segment. */
  ldr r2, =_sbss
 8001ef2:	4a0a      	ldr	r2, [pc, #40]	@ (8001f1c <LoopForever+0x12>)
  ldr r4, =_ebss
 8001ef4:	4c0a      	ldr	r4, [pc, #40]	@ (8001f20 <LoopForever+0x16>)
  movs r3, #0
 8001ef6:	2300      	movs	r3, #0
  b LoopFillZerobss
 8001ef8:	e001      	b.n	8001efe <LoopFillZerobss>

08001efa <FillZerobss>:

FillZerobss:
  str  r3, [r2]
 8001efa:	6013      	str	r3, [r2, #0]
  adds r2, r2, #4
 8001efc:	3204      	adds	r2, #4

08001efe <LoopFillZerobss>:

LoopFillZerobss:
  cmp r2, r4
 8001efe:	42a2      	cmp	r2, r4
  bcc FillZerobss
 8001f00:	d3fb      	bcc.n	8001efa <FillZerobss>

/* Call static constructors */
  bl __libc_init_array
 8001f02:	f000 f819 	bl	8001f38 <__libc_init_array>
/* Call the application's entry point.*/
  bl main
 8001f06:	f7fe ff99 	bl	8000e3c <main>

08001f0a <LoopForever>:

LoopForever:
  b LoopForever
 8001f0a:	e7fe      	b.n	8001f0a <LoopForever>
  ldr   r0, =_estack
 8001f0c:	20018000 	.word	0x20018000
  ldr r0, =_sdata
 8001f10:	20000000 	.word	0x20000000
  ldr r1, =_edata
 8001f14:	20000028 	.word	0x20000028
  ldr r2, =_sidata
 8001f18:	08001fa0 	.word	0x08001fa0
  ldr r2, =_sbss
 8001f1c:	20000028 	.word	0x20000028
  ldr r4, =_ebss
 8001f20:	20000130 	.word	0x20000130

08001f24 <ADC_IRQHandler>:
 * @retval : None
*/
  .section .text.Default_Handler,"ax",%progbits
Default_Handler:
Infinite_Loop:
  b Infinite_Loop
 8001f24:	e7fe      	b.n	8001f24 <ADC_IRQHandler>

08001f26 <memset>:
 8001f26:	4402      	add	r2, r0
 8001f28:	4603      	mov	r3, r0
 8001f2a:	4293      	cmp	r3, r2
 8001f2c:	d100      	bne.n	8001f30 <memset+0xa>
 8001f2e:	4770      	bx	lr
 8001f30:	f803 1b01 	strb.w	r1, [r3], #1
 8001f34:	e7f9      	b.n	8001f2a <memset+0x4>
	...

08001f38 <__libc_init_array>:
 8001f38:	b570      	push	{r4, r5, r6, lr}
 8001f3a:	4d0d      	ldr	r5, [pc, #52]	@ (8001f70 <__libc_init_array+0x38>)
 8001f3c:	4c0d      	ldr	r4, [pc, #52]	@ (8001f74 <__libc_init_array+0x3c>)
 8001f3e:	1b64      	subs	r4, r4, r5
 8001f40:	10a4      	asrs	r4, r4, #2
 8001f42:	2600      	movs	r6, #0
 8001f44:	42a6      	cmp	r6, r4
 8001f46:	d109      	bne.n	8001f5c <__libc_init_array+0x24>
 8001f48:	4d0b      	ldr	r5, [pc, #44]	@ (8001f78 <__libc_init_array+0x40>)
 8001f4a:	4c0c      	ldr	r4, [pc, #48]	@ (8001f7c <__libc_init_array+0x44>)
 8001f4c:	f000 f818 	bl	8001f80 <_init>
 8001f50:	1b64      	subs	r4, r4, r5
 8001f52:	10a4      	asrs	r4, r4, #2
 8001f54:	2600      	movs	r6, #0
 8001f56:	42a6      	cmp	r6, r4
 8001f58:	d105      	bne.n	8001f66 <__libc_init_array+0x2e>
 8001f5a:	bd70      	pop	{r4, r5, r6, pc}
 8001f5c:	f855 3b04 	ldr.w	r3, [r5], #4
 8001f60:	4798      	blx	r3
 8001f62:	3601      	adds	r6, #1
 8001f64:	e7ee      	b.n	8001f44 <__libc_init_array+0xc>
 8001f66:	f855 3b04 	ldr.w	r3, [r5], #4
 8001f6a:	4798      	blx	r3
 8001f6c:	3601      	adds	r6, #1
 8001f6e:	e7f2      	b.n	8001f56 <__libc_init_array+0x1e>
 8001f70:	08001f98 	.word	0x08001f98
 8001f74:	08001f98 	.word	0x08001f98
 8001f78:	08001f98 	.word	0x08001f98
 8001f7c:	08001f9c 	.word	0x08001f9c

08001f80 <_init>:
 8001f80:	b5f8      	push	{r3, r4, r5, r6, r7, lr}
 8001f82:	bf00      	nop
 8001f84:	bcf8      	pop	{r3, r4, r5, r6, r7}
 8001f86:	bc08      	pop	{r3}
 8001f88:	469e      	mov	lr, r3
 8001f8a:	4770      	bx	lr

08001f8c <_fini>:
 8001f8c:	b5f8      	push	{r3, r4, r5, r6, r7, lr}
 8001f8e:	bf00      	nop
 8001f90:	bcf8      	pop	{r3, r4, r5, r6, r7}
 8001f92:	bc08      	pop	{r3}
 8001f94:	469e      	mov	lr, r3
 8001f96:	4770      	bx	lr
